(lp0
(i__main__
Fonts
p1
(dp2
S'name'
p3
S'i_Baskerville.svg'
p4
sS'd'
p5
(lp6
(lp7
S'M'
p8
a(lp9
F137.0
aF1270.0
aaa(lp10
S'q'
p11
a(lp12
F0.0
aF43.0
aF30.5
aF74.0
aaa(lp13
S't'
p14
a(lp15
F73.5
aF31.0
aaa(lp16
g14
a(lp17
F73.0
aF-31.0
aaa(lp18
g14
a(lp19
F30.0
aF-74.0
aaa(lp20
g11
a(lp21
F0.0
aF-44.0
aF-30.0
aF-75.0
aaa(lp22
g14
a(lp23
F-73.0
aF-31.0
aaa(lp24
g14
a(lp25
F-73.5
aF31.0
aaa(lp26
g14
a(lp27
F-30.5
aF75.0
aaa(lp28
S'z'
p29
a(lp30
aa(lp31
g8
a(lp32
F330.0
aF852.0
aaa(lp33
S'v'
p34
a(lp35
F-571.0
aaa(lp36
g11
a(lp37
F0.0
aF-131.0
aF4.0
aF-165.0
aaa(lp38
g14
a(lp39
F29.0
aF-52.0
aaa(lp40
g14
a(lp41
F89.0
aF-18.0
aaa(lp42
S'h'
p43
a(lp44
F21.0
aaa(lp45
g34
a(lp46
F-46.0
aaa(lp47
g43
a(lp48
F-441.0
aaa(lp49
g34
a(lp50
F46.0
aaa(lp51
g43
a(lp52
F34.0
aaa(lp53
g11
a(lp54
F71.0
aF0.0
aF92.5
aF20.5
aaa(lp55
g14
a(lp56
F25.0
aF49.0
aaa(lp57
g14
a(lp58
F3.5
aF165.5
aaa(lp59
g34
a(lp60
F248.0
aaa(lp61
g11
a(lp62
F0.0
aF144.0
aF-13.5
aF176.0
aaa(lp63
g14
a(lp64
F-36.0
aF40.0
aaa(lp65
g14
a(lp66
F-78.5
aF8.0
aaa(lp67
g43
a(lp68
F-27.0
aaa(lp69
g34
a(lp70
F46.0
aaa(lp71
g11
a(lp72
F178.0
aF18.0
aF276.0
aF53.0
aaa(lp73
g43
a(lp74
F22.0
aaa(lp75
g29
a(lp76
aasba(i__main__
Fonts
p77
(dp78
g3
S'i_BanglaMN.svg'
p79
sg5
(lp80
(lp81
g8
a(lp82
F196.0
aF985.0
aaa(lp83
S'l'
p84
a(lp85
F143.0
aF58.0
aaa(lp86
g43
a(lp87
F59.0
aaa(lp88
g34
a(lp89
F-1043.0
aaa(lp90
g43
a(lp91
F-202.0
aaa(lp92
g34
a(lp93
F985.0
aaa(lp94
g29
a(lp95
aa(lp96
g8
a(lp97
F180.0
aF1416.0
aaa(lp98
g11
a(lp99
F0.0
aF24.0
aF9.0
aF45.0
aaa(lp100
g14
a(lp101
F25.0
aF37.0
aaa(lp102
g14
a(lp103
F37.0
aF25.0
aaa(lp104
g14
a(lp105
F45.0
aF9.0
aaa(lp106
g14
a(lp107
F45.0
aF-9.0
aaa(lp108
g14
a(lp109
F37.0
aF-25.0
aaa(lp110
g14
a(lp111
F25.0
aF-37.0
aaa(lp112
g14
a(lp113
F9.0
aF-45.0
aaa(lp114
g14
a(lp115
F-9.0
aF-45.0
aaa(lp116
g14
a(lp117
F-25.0
aF-37.0
aaa(lp118
g14
a(lp119
F-37.0
aF-25.0
aaa(lp120
g14
a(lp121
F-45.0
aF-9.0
aaa(lp122
g14
a(lp123
F-45.0
aF9.0
aaa(lp124
g14
a(lp125
F-37.0
aF25.0
aaa(lp126
g14
a(lp127
F-25.0
aF37.0
aaa(lp128
g14
a(lp129
F-9.0
aF45.0
aaa(lp130
g29
a(lp131
aasba(i__main__
Fonts
p132
(dp133
g3
S'i_Trattatello.svg'
p134
sg5
(lp135
(lp136
g8
a(lp137
F167.0
aF481.0
aaa(lp138
g11
a(lp139
F17.0
aF0.0
aF28.0
aF-12.5
aaa(lp140
g14
a(lp141
F11.0
aF-26.5
aaa(lp142
g84
a(lp143
F-9.0
aF-28.0
aaa(lp144
g11
a(lp145
F6.0
aF-6.0
aF8.0
aF-17.0
aaa(lp146
g11
a(lp147
F1.0
aF-5.0
aF1.0
aF-11.0
aaa(lp148
g11
a(lp149
F0.0
aF-20.0
aF-4.5
aF-37.0
aaa(lp150
g14
a(lp151
F-4.5
aF-38.0
aaa(lp152
g34
a(lp153
F-8.0
aaa(lp154
g11
a(lp155
F0.0
aF-5.0
aF-1.0
aF-11.5
aaa(lp156
g14
a(lp157
F-3.0
aF-12.5
aaa(lp158
g11
a(lp159
F-2.0
aF-7.0
aF-4.0
aF-15.0
aaa(lp160
g34
a(lp161
F-11.0
aaa(lp162
g11
a(lp163
F0.0
aF-11.0
aF-3.5
aF-18.0
aaa(lp164
g14
a(lp165
F-7.5
aF-18.0
aaa(lp166
g11
a(lp167
F-2.0
aF-8.0
aF-6.5
aF-16.5
aaa(lp168
g14
a(lp169
F-4.5
aF-19.5
aaa(lp170
g11
a(lp171
F0.0
aF-4.0
aF2.0
aF-10.5
aaa(lp172
g14
a(lp173
F6.0
aF-13.0
aaa(lp174
g14
a(lp175
F9.5
aF-11.0
aaa(lp176
g14
a(lp177
F12.5
aF-4.5
aaa(lp178
g11
a(lp179
F8.0
aF0.0
aF14.5
aF5.0
aaa(lp180
g14
a(lp181
F10.5
aF11.0
aaa(lp182
g11
a(lp183
F5.0
aF5.0
aF10.5
aF8.5
aaa(lp184
g14
a(lp185
F12.5
aF3.5
aaa(lp186
g43
a(lp187
F19.0
aaa(lp188
g11
a(lp189
F6.0
aF0.0
aF7.0
aF-6.0
aaa(lp190
g14
a(lp191
F1.0
aF-14.0
aaa(lp192
g11
a(lp193
F0.0
aF-3.0
aF-9.0
aF-12.0
aaa(lp194
g14
a(lp195
F-20.0
aF-19.5
aaa(lp196
g14
a(lp197
F-22.0
aF-20.0
aaa(lp198
g14
a(lp199
F-15.0
aF-12.5
aaa(lp200
g11
a(lp201
F-3.0
aF-7.0
aF-13.0
aF-24.0
aaa(lp202
g14
a(lp203
F-22.0
aF-34.5
aaa(lp204
g14
a(lp205
F-25.5
aF-31.0
aaa(lp206
g14
a(lp207
F-23.5
aF-13.5
aaa(lp208
g11
a(lp209
F-7.0
aF0.0
aF-15.5
aF4.5
aaa(lp210
g14
a(lp211
F-15.5
aF12.0
aaa(lp212
g14
a(lp213
F-11.5
aF15.5
aaa(lp214
g14
a(lp215
F-4.5
aF16.0
aaa(lp216
g34
a(lp217
F16.0
aaa(lp218
g11
a(lp219
F0.0
aF8.0
aF-1.0
aF14.0
aaa(lp220
g14
a(lp221
F-7.0
aF6.0
aaa(lp222
g34
a(lp223
F19.0
aaa(lp224
g84
a(lp225
F8.0
aF28.0
aaa(lp226
g34
a(lp227
F47.0
aaa(lp228
g11
a(lp229
F0.0
aF15.0
aF4.0
aF24.0
aaa(lp230
g14
a(lp231
F4.0
aF23.0
aaa(lp232
g34
a(lp233
F9.0
aaa(lp234
g11
a(lp235
F0.0
aF7.0
aF4.5
aF20.0
aaa(lp236
g14
a(lp237
F9.5
aF28.0
aaa(lp238
g14
a(lp239
F9.5
aF29.5
aaa(lp240
g14
a(lp241
F4.5
aF25.5
aaa(lp242
g11
a(lp243
F0.0
aF8.0
aF-6.5
aF17.5
aaa(lp244
g14
a(lp245
F-21.5
aF9.5
aaa(lp246
g11
a(lp247
F-6.0
aF0.0
aF-10.5
aF-4.0
aaa(lp248
g14
a(lp249
F-25.5
aF-4.0
aaa(lp250
g11
a(lp251
F-2.0
aF1.0
aF-4.0
aF5.0
aaa(lp252
g11
a(lp253
F-4.0
aF6.0
aF-4.0
aF15.0
aaa(lp254
g34
a(lp255
F16.0
aaa(lp256
g11
a(lp257
F0.0
aF9.0
aF17.5
aF26.5
aaa(lp258
g14
a(lp259
F40.0
aF35.0
aaa(lp260
g14
a(lp261
F43.5
aF31.0
aaa(lp262
g14
a(lp263
F27.0
aF13.5
aaa(lp264
g29
a(lp265
aa(lp266
g8
a(lp267
F170.0
aF717.0
aaa(lp268
g11
a(lp269
F4.0
aF0.0
aF10.5
aF1.5
aaa(lp270
g14
a(lp271
F13.5
aF3.0
aaa(lp272
g14
a(lp273
F13.5
aF3.0
aaa(lp274
g14
a(lp275
F9.5
aF1.5
aaa(lp276
g11
a(lp277
F14.0
aF-5.0
aF18.0
aF-17.0
aaa(lp278
g14
a(lp279
F12.0
aF-25.0
aaa(lp280
g11
a(lp281
F0.0
aF-8.0
aF1.5
aF-16.0
aaa(lp282
g14
a(lp283
F1.5
aF-15.0
aaa(lp284
g11
a(lp285
F0.0
aF-6.0
aF-4.0
aF-14.5
aaa(lp286
g14
a(lp287
F-4.0
aF-21.5
aaa(lp288
g11
a(lp289
F-2.0
aF-7.0
aF-5.5
aF-17.0
aaa(lp290
g14
a(lp291
F-9.0
aF-18.5
aaa(lp292
g14
a(lp293
F-13.0
aF-14.0
aaa(lp294
g14
a(lp295
F-17.5
aF-3.5
aaa(lp296
g11
a(lp297
F-14.0
aF0.0
aF-30.5
aF9.5
aaa(lp298
g14
a(lp299
F-24.5
aF24.5
aaa(lp300
g11
a(lp301
F-7.0
aF6.0
aF-5.0
aF18.0
aaa(lp302
g14
a(lp303
F2.0
aF21.0
aaa(lp304
g11
a(lp305
F0.0
aF27.0
aF9.0
aF44.0
aaa(lp306
g14
a(lp307
F22.0
aF36.0
aaa(lp308
g29
a(lp309
aasba(i__main__
Fonts
p310
(dp311
g3
S'i_Superclarendon-Regular.svg'
p312
sg5
(lp313
(lp314
g8
a(lp315
F262.0
aF102.0
aaa(lp316
g11
a(lp317
F-2.0
aF-45.0
aF87.0
aF-45.0
aaa(lp318
g34
a(lp319
F-57.0
aaa(lp320
g43
a(lp321
F-310.0
aaa(lp322
g34
a(lp323
F57.0
aaa(lp324
g11
a(lp325
F86.0
aF0.0
aF86.0
aF45.0
aaa(lp326
g34
a(lp327
F304.0
aaa(lp328
g11
a(lp329
F0.0
aF46.0
aF-86.0
aF46.0
aaa(lp330
g34
a(lp331
F57.0
aaa(lp332
g43
a(lp333
F223.0
aaa(lp334
g34
a(lp335
F-407.0
aaa(lp336
g29
a(lp337
aa(lp338
g8
a(lp339
F274.0
aF677.0
aaa(lp340
g11
a(lp341
F0.0
aF-35.0
aF-24.5
aF-60.5
aaa(lp342
g14
a(lp343
F-60.5
aF-25.5
aaa(lp344
g11
a(lp345
F-18.0
aF0.0
aF-33.5
aF7.0
aaa(lp346
g14
a(lp347
F-27.0
aF18.5
aaa(lp348
g14
a(lp349
F-18.5
aF27.0
aaa(lp350
g14
a(lp351
F-7.0
aF33.5
aaa(lp352
g11
a(lp353
F0.0
aF36.0
aF25.5
aF60.5
aaa(lp354
g14
a(lp355
F60.5
aF24.5
aaa(lp356
g14
a(lp357
F60.0
aF-25.0
aaa(lp358
g14
a(lp359
F25.0
aF-60.0
aaa(lp360
g29
a(lp361
aasba(i__main__
Fonts
p362
(dp363
g3
S'i_GurmukhiMN.svg'
p364
sg5
(lp365
(lp366
g8
a(lp367
F117.0
aF793.0
aaa(lp368
g11
a(lp369
F24.0
aF0.0
aF42.0
aF-15.5
aaa(lp370
g14
a(lp371
F18.0
aF-36.5
aaa(lp372
g11
a(lp373
F0.0
aF-22.0
aF-18.0
aF-37.5
aaa(lp374
g14
a(lp375
F-42.0
aF-15.5
aaa(lp376
g11
a(lp377
F-25.0
aF0.0
aF-42.5
aF15.5
aaa(lp378
g14
a(lp379
F-17.5
aF37.5
aaa(lp380
g11
a(lp381
F0.0
aF21.0
aF17.5
aF36.5
aaa(lp382
g14
a(lp383
F42.5
aF15.5
aaa(lp384
g29
a(lp385
aa(lp386
g8
a(lp387
F66.0
aF505.0
aaa(lp388
g84
a(lp389
F73.0
aF30.0
aaa(lp390
g43
a(lp391
F30.0
aaa(lp392
g34
a(lp393
F-535.0
aaa(lp394
g43
a(lp395
F-103.0
aaa(lp396
g34
a(lp397
F505.0
aaa(lp398
g29
a(lp399
aasba(i__main__
Fonts
p400
(dp401
g3
S'i_BodoniSvtyTwoOSITCTT-Book.svg'
p402
sg5
(lp403
(lp404
g8
a(lp405
F167.0
aF629.0
aaa(lp406
g11
a(lp407
F0.0
aF-45.0
aF-45.0
aF-45.0
aaa(lp408
g11
a(lp409
F-19.0
aF0.0
aF-32.0
aF12.5
aaa(lp410
g14
a(lp411
F-13.0
aF30.5
aaa(lp412
g11
a(lp413
F0.0
aF47.0
aF45.0
aF47.0
aaa(lp414
g14
a(lp415
F45.0
aF-45.0
aaa(lp416
g29
a(lp417
aa(lp418
g8
a(lp419
F242.0
aF6.0
aaa(lp420
g11
a(lp421
F0.0
aF-9.0
aF-17.0
aF-9.0
aaa(lp422
g11
a(lp423
F1.0
aF0.0
aF-24.0
aF2.0
aaa(lp424
g11
a(lp425
F-30.0
aF2.0
aF-50.0
aF2.0
aaa(lp426
g84
a(lp427
F-104.0
aF-2.0
aaa(lp428
g11
a(lp429
F-5.0
aF-1.0
aF-12.0
aF-1.0
aaa(lp430
g11
a(lp431
F-11.0
aF0.0
aF-11.0
aF7.0
aaa(lp432
g11
a(lp433
F0.0
aF10.0
aF20.0
aF10.0
aaa(lp434
g11
a(lp435
F38.0
aF1.0
aF41.5
aF5.5
aaa(lp436
g14
a(lp437
F3.5
aF41.5
aaa(lp438
g84
a(lp439
F-1.0
aF303.0
aaa(lp440
g11
a(lp441
F-1.0
aF25.0
aF-2.5
aF29.5
aaa(lp442
g14
a(lp443
F-12.5
aF4.5
aaa(lp444
g84
a(lp445
F-29.0
aF-1.0
aaa(lp446
g11
a(lp447
F-4.0
aF-1.0
aF-10.0
aF-1.0
aaa(lp448
g11
a(lp449
F-11.0
aF0.0
aF-11.0
aF8.0
aaa(lp450
g11
a(lp451
F0.0
aF7.0
aF17.0
aF8.0
aaa(lp452
g11
a(lp453
F67.0
aF3.0
aF115.0
aF32.0
aaa(lp454
g84
a(lp455
F10.0
aF6.0
aaa(lp456
g11
a(lp457
F8.0
aF-15.0
aF8.0
aF-55.0
aaa(lp458
g11
a(lp459
F0.0
aF2.0
aF0.0
aF-10.0
aaa(lp460
g11
a(lp461
F-1.0
aF-12.0
aF-1.0
aF-39.0
aaa(lp462
g34
a(lp463
F-273.0
aaa(lp464
g11
a(lp465
F0.0
aF-40.0
aF1.5
aF-47.0
aaa(lp466
g14
a(lp467
F10.5
aF-9.0
aaa(lp468
g11
a(lp469
F15.0
aF-4.0
aF44.0
aF-4.0
aaa(lp470
g11
a(lp471
F14.0
aF0.0
aF14.0
aF-8.0
aaa(lp472
g29
a(lp473
aasba(i__main__
Fonts
p474
(dp475
g3
S'i_KhmerMN.svg'
p476
sg5
(lp477
(lp478
g8
a(lp479
F203.0
aF1380.0
aaa(lp480
g11
a(lp481
F21.0
aF0.0
aF40.5
aF-7.0
aaa(lp482
g14
a(lp483
F33.5
aF-19.5
aaa(lp484
g14
a(lp485
F22.5
aF-29.0
aaa(lp486
g14
a(lp487
F8.5
aF-35.5
aaa(lp488
g11
a(lp489
F0.0
aF-18.0
aF-8.5
aF-34.5
aaa(lp490
g14
a(lp491
F-22.5
aF-29.0
aaa(lp492
g14
a(lp493
F-33.5
aF-20.0
aaa(lp494
g14
a(lp495
F-40.5
aF-7.5
aaa(lp496
g14
a(lp497
F-40.0
aF7.5
aaa(lp498
g14
a(lp499
F-33.0
aF20.0
aaa(lp500
g14
a(lp501
F-22.5
aF29.0
aaa(lp502
g14
a(lp503
F-8.5
aF34.5
aaa(lp504
g11
a(lp505
F0.0
aF19.0
aF8.5
aF35.5
aaa(lp506
g14
a(lp507
F22.5
aF29.0
aaa(lp508
g14
a(lp509
F33.0
aF19.5
aaa(lp510
g14
a(lp511
F40.0
aF7.0
aaa(lp512
g29
a(lp513
aa(lp514
g8
a(lp515
F115.0
aF880.0
aaa(lp516
g84
a(lp517
F127.0
aF52.0
aaa(lp518
g43
a(lp519
F53.0
aaa(lp520
g34
a(lp521
F-932.0
aaa(lp522
g43
a(lp523
F-180.0
aaa(lp524
g34
a(lp525
F880.0
aaa(lp526
g29
a(lp527
aasba(i__main__
Fonts
p528
(dp529
g3
S'i_KannadaMN.svg'
p530
sg5
(lp531
(lp532
g8
a(lp533
F216.0
aF990.0
aaa(lp534
g84
a(lp535
F130.0
aF53.0
aaa(lp536
g43
a(lp537
F32.0
aaa(lp538
g34
a(lp539
F-1043.0
aaa(lp540
g43
a(lp541
F-162.0
aaa(lp542
g34
a(lp543
F990.0
aaa(lp544
g29
a(lp545
aa(lp546
g8
a(lp547
F200.0
aF1416.0
aaa(lp548
g11
a(lp549
F0.0
aF24.0
aF7.5
aF45.0
aaa(lp550
g14
a(lp551
F20.5
aF37.0
aaa(lp552
g14
a(lp553
F30.5
aF25.0
aaa(lp554
g14
a(lp555
F37.5
aF9.0
aaa(lp556
g14
a(lp557
F37.5
aF-9.0
aaa(lp558
g14
a(lp559
F30.5
aF-25.0
aaa(lp560
g14
a(lp561
F20.5
aF-37.0
aaa(lp562
g14
a(lp563
F7.5
aF-45.0
aaa(lp564
g14
a(lp565
F-7.5
aF-45.0
aaa(lp566
g14
a(lp567
F-20.5
aF-37.0
aaa(lp568
g14
a(lp569
F-30.5
aF-25.0
aaa(lp570
g14
a(lp571
F-37.5
aF-9.0
aaa(lp572
g14
a(lp573
F-37.5
aF9.0
aaa(lp574
g14
a(lp575
F-30.5
aF25.0
aaa(lp576
g14
a(lp577
F-20.5
aF37.0
aaa(lp578
g14
a(lp579
F-7.5
aF45.0
aaa(lp580
g29
a(lp581
aasba(i__main__
Fonts
p582
(dp583
g3
S'i_Didot.svg'
p584
sg5
(lp585
(lp586
g8
a(lp587
F93.0
aF662.0
aaa(lp588
g11
a(lp589
F0.0
aF22.0
aF15.5
aF37.5
aaa(lp590
g14
a(lp591
F37.5
aF15.5
aaa(lp592
g14
a(lp593
F37.5
aF-15.5
aaa(lp594
g14
a(lp595
F15.5
aF-37.5
aaa(lp596
g14
a(lp597
F-15.5
aF-37.5
aaa(lp598
g14
a(lp599
F-37.5
aF-15.5
aaa(lp600
g14
a(lp601
F-37.5
aF15.5
aaa(lp602
g14
a(lp603
F-15.5
aF37.5
aaa(lp604
g29
a(lp605
aa(lp606
g8
a(lp607
F28.0
aF14.0
aaa(lp608
g43
a(lp609
F77.0
aaa(lp610
g34
a(lp611
F401.0
aaa(lp612
g43
a(lp613
F-77.0
aaa(lp614
g34
a(lp615
F14.0
aaa(lp616
g43
a(lp617
F163.0
aaa(lp618
g34
a(lp619
F-415.0
aaa(lp620
g43
a(lp621
F77.0
aaa(lp622
g34
a(lp623
F-14.0
aaa(lp624
g43
a(lp625
F-240.0
aaa(lp626
g34
a(lp627
F14.0
aaa(lp628
g29
a(lp629
aasba(i__main__
Fonts
p630
(dp631
g3
S'i_BodoniSvtyTwoSCITCTT-Book.svg'
p632
sg5
(lp633
(lp634
g8
a(lp635
F217.0
aF6.0
aaa(lp636
g11
a(lp637
F0.0
aF-6.0
aF-9.0
aF-6.0
aaa(lp638
g43
a(lp639
F-10.0
aaa(lp640
g84
a(lp641
F-21.0
aF1.0
aaa(lp642
g43
a(lp643
F-26.0
aaa(lp644
g11
a(lp645
F-8.0
aF0.0
aF-17.0
aF1.0
aaa(lp646
g43
a(lp647
F-11.0
aaa(lp648
g11
a(lp649
F-10.0
aF0.0
aF-37.5
aF-1.0
aaa(lp650
g14
a(lp651
F-41.5
aF-1.0
aaa(lp652
g43
a(lp653
F-4.0
aaa(lp654
g11
a(lp655
F-17.0
aF0.0
aF-17.0
aF6.0
aaa(lp656
g11
a(lp657
F0.0
aF8.0
aF22.0
aF9.0
aaa(lp658
g11
a(lp659
F30.0
aF2.0
aF31.5
aF7.0
aaa(lp660
g14
a(lp661
F1.5
aF43.0
aaa(lp662
g34
a(lp663
F322.0
aaa(lp664
g11
a(lp665
F0.0
aF39.0
aF-2.0
aF45.5
aaa(lp666
g14
a(lp667
F-15.0
aF7.5
aaa(lp668
g84
a(lp669
F-20.0
aF1.0
aaa(lp670
g43
a(lp671
F-10.0
aaa(lp672
g11
a(lp673
F-9.0
aF0.0
aF-9.0
aF7.0
aaa(lp674
g14
a(lp675
F13.0
aF7.0
aaa(lp676
g11
a(lp677
F-1.0
aF0.0
aF6.0
aF0.0
aaa(lp678
g11
a(lp679
F7.0
aF-1.0
aF22.0
aF-1.0
aaa(lp680
g43
a(lp681
F72.0
aaa(lp682
g11
a(lp683
F6.0
aF0.0
aF18.0
aF1.0
aaa(lp684
g43
a(lp685
F22.0
aaa(lp686
g43
a(lp687
F25.0
aaa(lp688
g11
a(lp689
F16.0
aF0.0
aF16.0
aF-8.0
aaa(lp690
g11
a(lp691
F0.0
aF-6.0
aF-34.0
aF-7.0
aaa(lp692
g11
a(lp693
F-14.0
aF0.0
aF-17.0
aF-4.5
aaa(lp694
g14
a(lp695
F-3.0
aF-27.5
aaa(lp696
g34
a(lp697
F-377.0
aaa(lp698
g11
a(lp699
F0.0
aF-10.0
aF7.5
aF-13.0
aaa(lp700
g14
a(lp701
F35.5
aF-5.0
aaa(lp702
g11
a(lp703
F12.0
aF-1.0
aF12.0
aF-7.0
aaa(lp704
g29
a(lp705
aasba(i__main__
Fonts
p706
(dp707
g3
S'i_TamilSangamMN.svg'
p708
sg5
(lp709
(lp710
g8
a(lp711
F298.0
aF1402.0
aaa(lp712
g34
a(lp713
F-173.0
aaa(lp714
g43
a(lp715
F-148.0
aaa(lp716
g34
a(lp717
F173.0
aaa(lp718
g43
a(lp719
F148.0
aaa(lp720
g29
a(lp721
aa(lp722
g8
a(lp723
F298.0
aF1018.0
aaa(lp724
g34
a(lp725
F-1018.0
aaa(lp726
g43
a(lp727
F-148.0
aaa(lp728
g34
a(lp729
F1018.0
aaa(lp730
g43
a(lp731
F148.0
aaa(lp732
g29
a(lp733
aasba(i__main__
Fonts
p734
(dp735
g3
S'i_Trebuchet-BoldItalic.svg'
p736
sg5
(lp737
(lp738
g8
a(lp739
F323.0
aF1415.0
aaa(lp740
g11
a(lp741
F0.0
aF67.0
aF47.5
aF111.5
aaa(lp742
g14
a(lp743
F115.5
aF44.5
aaa(lp744
g11
a(lp745
F67.0
aF0.0
aF115.0
aF-44.5
aaa(lp746
g14
a(lp747
F48.0
aF-111.5
aaa(lp748
g11
a(lp749
F0.0
aF-66.0
aF-48.0
aF-111.0
aaa(lp750
g14
a(lp751
F-115.0
aF-45.0
aaa(lp752
g14
a(lp753
F-115.0
aF44.5
aaa(lp754
g14
a(lp755
F-48.0
aF111.5
aaa(lp756
g29
a(lp757
aa(lp758
g8
a(lp759
F397.0
aF0.0
aaa(lp760
g43
a(lp761
F-254.0
aaa(lp762
g84
a(lp763
F162.0
aF870.0
aaa(lp764
g43
a(lp765
F-137.0
aaa(lp766
g84
a(lp767
F42.0
aF201.0
aaa(lp768
g43
a(lp769
F387.0
aaa(lp770
g29
a(lp771
aasba(i__main__
Fonts
p772
(dp773
g3
S'i_TimesNewRomanPS-BoldItalicMT.svg'
p774
sg5
(lp775
(lp776
g8
a(lp777
F460.0
aF1387.0
aaa(lp778
g11
a(lp779
F62.0
aF0.0
aF104.5
aF-43.0
aaa(lp780
g14
a(lp781
F42.5
aF-104.0
aaa(lp782
g14
a(lp783
F-43.0
aF-104.0
aaa(lp784
g14
a(lp785
F-104.0
aF-43.0
aaa(lp786
g11
a(lp787
F-60.0
aF0.0
aF-103.0
aF43.0
aaa(lp788
g14
a(lp789
F-43.0
aF104.0
aaa(lp790
g14
a(lp791
F42.5
aF104.0
aaa(lp792
g14
a(lp793
F103.5
aF43.0
aaa(lp794
g29
a(lp795
aa(lp796
g8
a(lp797
F522.0
aF927.0
aaa(lp798
g84
a(lp799
F-205.0
aF-711.0
aaa(lp800
g11
a(lp801
F-17.0
aF-61.0
aF-17.0
aF-80.0
aaa(lp802
g11
a(lp803
F0.0
aF-11.0
aF9.0
aF-20.5
aaa(lp804
g14
a(lp805
F19.0
aF-9.5
aaa(lp806
g11
a(lp807
F17.0
aF0.0
aF34.0
aF15.0
aaa(lp808
g11
a(lp809
F45.0
aF37.0
aF108.0
aF134.0
aaa(lp810
g84
a(lp811
F34.0
aF-20.0
aaa(lp812
g11
a(lp813
F-151.0
aF-263.0
aF-321.0
aF-263.0
aaa(lp814
g11
a(lp815
F-65.0
aF0.0
aF-103.5
aF36.5
aaa(lp816
g14
a(lp817
F-38.5
aF92.5
aaa(lp818
g11
a(lp819
F0.0
aF37.0
aF17.0
aF94.0
aaa(lp820
g84
a(lp821
F139.0
aF478.0
aaa(lp822
g11
a(lp823
F20.0
aF69.0
aF20.0
aF104.0
aaa(lp824
g11
a(lp825
F0.0
aF22.0
aF-19.0
aF39.0
aaa(lp826
g14
a(lp827
F-52.0
aF17.0
aaa(lp828
g11
a(lp829
F-15.0
aF0.0
aF-36.0
aF-1.0
aaa(lp830
g84
a(lp831
F13.0
aF40.0
aaa(lp832
g84
a(lp833
F339.0
aF55.0
aaa(lp834
g43
a(lp835
F60.0
aaa(lp836
g29
a(lp837
aasba(i__main__
Fonts
p838
(dp839
g3
S'i_ShreeDev0714.svg'
p840
sg5
(lp841
(lp842
g8
a(lp843
F104.0
aF0.0
aaa(lp844
g43
a(lp845
F-40.0
aaa(lp846
g34
a(lp847
F426.0
aaa(lp848
g43
a(lp849
F40.0
aaa(lp850
g34
a(lp851
F-426.0
aaa(lp852
g34
a(lp853
F0.0
aaa(lp854
g29
a(lp855
aa(lp856
g8
a(lp857
F64.0
aF532.0
aaa(lp858
g34
a(lp859
F61.0
aaa(lp860
g43
a(lp861
F40.0
aaa(lp862
g34
a(lp863
F-61.0
aaa(lp864
g43
a(lp865
F-40.0
aaa(lp866
g34
a(lp867
F0.0
aaa(lp868
g29
a(lp869
aasba(i__main__
Fonts
p870
(dp871
g3
S'i_AppleGothic.svg'
p872
sg5
(lp873
(lp874
g8
a(lp875
F40.0
aF535.0
aaa(lp876
g43
a(lp877
F72.0
aaa(lp878
g34
a(lp879
F-535.0
aaa(lp880
g43
a(lp881
F-72.0
aaa(lp882
g34
a(lp883
F535.0
aaa(lp884
g29
a(lp885
aa(lp886
g8
a(lp887
F75.0
aF761.0
aaa(lp888
g11
a(lp889
F21.0
aF0.0
aF35.0
aF-14.0
aaa(lp890
g14
a(lp891
F14.0
aF-40.0
aaa(lp892
g14
a(lp893
F-13.0
aF-40.0
aaa(lp894
g14
a(lp895
F-36.0
aF-14.0
aaa(lp896
g14
a(lp897
F-35.5
aF16.0
aaa(lp898
g14
a(lp899
F-12.5
aF37.0
aaa(lp900
g11
a(lp901
F0.0
aF33.0
aF15.0
aF44.0
aaa(lp902
g14
a(lp903
F33.0
aF11.0
aaa(lp904
g29
a(lp905
aasba(i__main__
Fonts
p906
(dp907
g3
S'i_InaiMathi.svg'
p908
sg5
(lp909
(lp910
g8
a(lp911
F129.0
aF662.0
aaa(lp912
g34
a(lp913
F-82.0
aaa(lp914
g43
a(lp915
F-71.0
aaa(lp916
g34
a(lp917
F82.0
aaa(lp918
g43
a(lp919
F71.0
aaa(lp920
g29
a(lp921
aa(lp922
g8
a(lp923
F129.0
aF497.0
aaa(lp924
g34
a(lp925
F-497.0
aaa(lp926
g43
a(lp927
F-71.0
aaa(lp928
g34
a(lp929
F497.0
aaa(lp930
g43
a(lp931
F71.0
aaa(lp932
g29
a(lp933
aasba(i__main__
Fonts
p934
(dp935
g3
S'i_BradleyHandITCTT-Bold.svg'
p936
sg5
(lp937
(lp938
g8
a(lp939
F215.0
aF676.0
aaa(lp940
g11
a(lp941
F0.0
aF-12.0
aF-16.0
aF-22.0
aaa(lp942
g34
a(lp943
F-2.0
aaa(lp944
g11
a(lp945
F-19.0
aF-23.0
aF-33.0
aF-26.0
aaa(lp946
g84
a(lp947
F-15.0
aF-18.0
aaa(lp948
g84
a(lp949
F-10.0
aF-13.0
aaa(lp950
g84
a(lp951
F-23.0
aF-6.0
aaa(lp952
g84
a(lp953
F-10.0
aF-14.0
aaa(lp954
g84
a(lp955
F-16.0
aF-8.0
aaa(lp956
g84
a(lp957
F-26.0
aF-23.0
aaa(lp958
g84
a(lp959
F-16.0
aF15.0
aaa(lp960
g84
a(lp961
F3.0
aF25.0
aaa(lp962
g84
a(lp963
F11.0
aF18.0
aaa(lp964
g11
a(lp965
F1.0
aF14.0
aF16.0
aF24.0
aaa(lp966
g34
a(lp967
F4.0
aaa(lp968
g84
a(lp969
F6.0
aF4.0
aaa(lp970
g84
a(lp971
F1.0
aF15.0
aaa(lp972
g84
a(lp973
F16.0
aF4.0
aaa(lp974
g34
a(lp975
F9.0
aaa(lp976
g84
a(lp977
F12.0
aF2.0
aaa(lp978
g11
a(lp979
F4.0
aF20.0
aF17.0
aF29.0
aaa(lp980
g84
a(lp981
F3.0
aF2.0
aaa(lp982
g84
a(lp983
F6.0
aF6.0
aaa(lp984
g84
a(lp985
F8.0
aF24.0
aaa(lp986
g11
a(lp987
F66.0
aF-16.0
aF66.0
aF-49.0
aaa(lp988
g29
a(lp989
aa(lp990
g8
a(lp991
F317.0
aF146.0
aaa(lp992
g11
a(lp993
F0.0
aF-23.0
aF-8.0
aF-29.0
aaa(lp994
g84
a(lp995
F-5.0
aF-4.0
aaa(lp996
g84
a(lp997
F-5.0
aF-14.0
aaa(lp998
g84
a(lp999
F-16.0
aF-5.0
aaa(lp1000
g11
a(lp1001
F-7.0
aF-16.0
aF-21.0
aF-25.0
aaa(lp1002
g84
a(lp1003
F-9.0
aF-3.0
aaa(lp1004
g84
a(lp1005
F-13.0
aF-14.0
aaa(lp1006
g84
a(lp1007
F-12.0
aF-3.0
aaa(lp1008
g11
a(lp1009
F-7.0
aF-18.0
aF-29.0
aF-19.0
aaa(lp1010
g11
a(lp1011
F-2.0
aF-3.0
aF-9.0
aF-12.0
aaa(lp1012
g11
a(lp1013
F-15.0
aF-10.0
aF-31.0
aF-12.0
aaa(lp1014
g84
a(lp1015
F-5.0
aF-1.0
aaa(lp1016
g84
a(lp1017
F-7.0
aF-9.0
aaa(lp1018
g43
a(lp1019
F-20.0
aaa(lp1020
g84
a(lp1021
F-16.0
aF-12.0
aaa(lp1022
g84
a(lp1023
F-41.0
aF30.0
aaa(lp1024
g84
a(lp1025
F-19.0
aF39.0
aaa(lp1026
g84
a(lp1027
F-1.0
aF49.0
aaa(lp1028
g84
a(lp1029
F-4.0
aF12.0
aaa(lp1030
g84
a(lp1031
F12.0
aF88.0
aaa(lp1032
g84
a(lp1033
F4.0
aF4.0
aaa(lp1034
g11
a(lp1035
F-3.0
aF15.0
aF-3.0
aF29.0
aaa(lp1036
g11
a(lp1037
F0.0
aF9.0
aF6.0
aF37.0
aaa(lp1038
g84
a(lp1039
F5.0
aF23.0
aaa(lp1040
g11
a(lp1041
F-2.0
aF6.0
aF-8.0
aF13.0
aaa(lp1042
g84
a(lp1043
F6.0
aF19.0
aaa(lp1044
g84
a(lp1045
F2.0
aF23.0
aaa(lp1046
g84
a(lp1047
F2.0
aF3.0
aaa(lp1048
g11
a(lp1049
F-4.0
aF9.0
aF-5.0
aF20.0
aaa(lp1050
g11
a(lp1051
F1.0
aF2.0
aF2.0
aF5.5
aaa(lp1052
g14
a(lp1053
F1.0
aF5.5
aaa(lp1054
g11
a(lp1055
F-3.0
aF9.0
aF-3.0
aF17.0
aaa(lp1056
g11
a(lp1057
F0.0
aF24.0
aF27.0
aF22.0
aaa(lp1058
g84
a(lp1059
F12.0
aF-1.0
aaa(lp1060
g11
a(lp1061
F12.0
aF6.0
aF15.0
aF6.0
aaa(lp1062
g11
a(lp1063
F20.0
aF0.0
aF27.0
aF-22.0
aaa(lp1064
g34
a(lp1065
F-4.0
aaa(lp1066
g11
a(lp1067
F4.0
aF-12.0
aF4.0
aF-23.0
aaa(lp1068
g11
a(lp1069
F0.0
aF-9.0
aF-2.0
aF-13.0
aaa(lp1070
g84
a(lp1071
F-7.0
aF-50.0
aaa(lp1072
g84
a(lp1073
F7.0
aF-14.0
aaa(lp1074
g11
a(lp1075
F0.0
aF-18.0
aF-12.0
aF-32.0
aaa(lp1076
g84
a(lp1077
F4.0
aF-12.0
aaa(lp1078
g84
a(lp1079
F-13.0
aF-38.0
aaa(lp1080
g11
a(lp1081
F-2.0
aF-25.0
aF-5.0
aF-38.0
aaa(lp1082
g34
a(lp1083
F-25.0
aaa(lp1084
g84
a(lp1085
F-6.0
aF-14.0
aaa(lp1086
g84
a(lp1087
F1.0
aF-10.0
aaa(lp1088
g84
a(lp1089
F-2.0
aF-23.0
aaa(lp1090
g84
a(lp1091
F2.0
aF-18.0
aaa(lp1092
g84
a(lp1093
F15.0
aF-12.0
aaa(lp1094
g84
a(lp1095
F12.0
aF2.0
aaa(lp1096
g84
a(lp1097
F2.0
aF3.0
aaa(lp1098
g84
a(lp1099
F8.0
aF-1.0
aaa(lp1100
g84
a(lp1101
F13.0
aF4.0
aaa(lp1102
g84
a(lp1103
F11.0
aF11.0
aaa(lp1104
g84
a(lp1105
F4.0
aF6.0
aaa(lp1106
g84
a(lp1107
F7.0
aF1.0
aaa(lp1108
g84
a(lp1109
F2.0
aF5.0
aaa(lp1110
g84
a(lp1111
F3.0
aF4.0
aaa(lp1112
g84
a(lp1113
F6.0
aF-4.0
aaa(lp1114
g84
a(lp1115
F10.0
aF10.0
aaa(lp1116
g84
a(lp1117
F6.0
aF-1.0
aaa(lp1118
g84
a(lp1119
F2.0
aF7.0
aaa(lp1120
g43
a(lp1121
F2.0
aaa(lp1122
g84
a(lp1123
F3.0
aF8.0
aaa(lp1124
g84
a(lp1125
F9.0
aF4.0
aaa(lp1126
g84
a(lp1127
F19.0
aF9.0
aaa(lp1128
g11
a(lp1129
F23.0
aF16.0
aF45.0
aF16.0
aaa(lp1130
g43
a(lp1131
F4.0
aaa(lp1132
g11
a(lp1133
F11.0
aF-7.0
aF15.0
aF-18.0
aaa(lp1134
g29
a(lp1135
aasba(i__main__
Fonts
p1136
(dp1137
g3
S'information_Webdings.svg'
p1138
sg5
(lp1139
(lp1140
g8
a(lp1141
F1843.0
aF612.0
aaa(lp1142
g11
a(lp1143
F0.0
aF-339.0
aF-240.0
aF-578.5
aaa(lp1144
g14
a(lp1145
F-579.0
aF-239.5
aaa(lp1146
g14
a(lp1147
F-579.0
aF239.5
aaa(lp1148
g14
a(lp1149
F-240.0
aF578.5
aaa(lp1150
g14
a(lp1151
F240.0
aF579.0
aaa(lp1152
g14
a(lp1153
F579.0
aF240.0
aaa(lp1154
g14
a(lp1155
F579.0
aF-240.0
aaa(lp1156
g14
a(lp1157
F240.0
aF-579.0
aaa(lp1158
g29
a(lp1159
aa(lp1160
g8
a(lp1161
F1709.0
aF612.0
aaa(lp1162
g11
a(lp1163
F0.0
aF284.0
aF-200.5
aF485.0
aaa(lp1164
g14
a(lp1165
F-484.5
aF201.0
aaa(lp1166
g14
a(lp1167
F-485.0
aF-201.0
aaa(lp1168
g14
a(lp1169
F-201.0
aF-485.0
aaa(lp1170
g14
a(lp1171
F201.0
aF-484.5
aaa(lp1172
g14
a(lp1173
F485.0
aF-200.5
aaa(lp1174
g14
a(lp1175
F484.5
aF200.5
aaa(lp1176
g14
a(lp1177
F200.5
aF484.5
aaa(lp1178
g29
a(lp1179
aa(lp1180
g8
a(lp1181
F1192.0
aF1034.0
aaa(lp1182
g11
a(lp1183
F0.0
aF-65.0
aF-49.5
aF-111.0
aaa(lp1184
g14
a(lp1185
F-118.5
aF-46.0
aaa(lp1186
g11
a(lp1187
F-70.0
aF0.0
aF-119.0
aF46.0
aaa(lp1188
g14
a(lp1189
F-49.0
aF111.0
aaa(lp1190
g14
a(lp1191
F49.0
aF111.0
aaa(lp1192
g14
a(lp1193
F119.0
aF46.0
aaa(lp1194
g11
a(lp1195
F69.0
aF0.0
aF118.5
aF-46.0
aaa(lp1196
g14
a(lp1197
F49.5
aF-111.0
aaa(lp1198
g29
a(lp1199
aa(lp1200
g8
a(lp1201
F1161.0
aF0.0
aaa(lp1202
g43
a(lp1203
F-275.0
aaa(lp1204
g34
a(lp1205
F780.0
aaa(lp1206
g43
a(lp1207
F275.0
aaa(lp1208
g34
a(lp1209
F-780.0
aaa(lp1210
g29
a(lp1211
aasba(i__main__
Fonts
p1212
(dp1213
g3
S'i_GurmukhiSangamMN.svg'
p1214
sg5
(lp1215
(lp1216
g8
a(lp1217
F133.0
aF696.0
aaa(lp1218
g34
a(lp1219
F-86.0
aaa(lp1220
g43
a(lp1221
F-73.0
aaa(lp1222
g34
a(lp1223
F86.0
aaa(lp1224
g43
a(lp1225
F73.0
aaa(lp1226
g29
a(lp1227
aa(lp1228
g8
a(lp1229
F133.0
aF497.0
aaa(lp1230
g34
a(lp1231
F-497.0
aaa(lp1232
g43
a(lp1233
F-73.0
aaa(lp1234
g34
a(lp1235
F497.0
aaa(lp1236
g43
a(lp1237
F73.0
aaa(lp1238
g29
a(lp1239
aasba(i__main__
Fonts
p1240
(dp1241
g3
S'i_Georgia-Bold.svg'
p1242
sg5
(lp1243
(lp1244
g8
a(lp1245
F690.0
aF0.0
aaa(lp1246
g43
a(lp1247
F-632.0
aaa(lp1248
g34
a(lp1249
F73.0
aaa(lp1250
g11
a(lp1251
F26.0
aF2.0
aF51.0
aF5.0
aaa(lp1252
g14
a(lp1253
F43.0
aF10.0
aaa(lp1254
g11
a(lp1255
F32.0
aF12.0
aF45.0
aF34.5
aaa(lp1256
g14
a(lp1257
F13.0
aF59.5
aaa(lp1258
g34
a(lp1259
F582.0
aaa(lp1260
g11
a(lp1261
F0.0
aF35.0
aF-16.0
aF61.5
aaa(lp1262
g14
a(lp1263
F-40.0
aF42.5
aaa(lp1264
g11
a(lp1265
F-18.0
aF12.0
aF-54.5
aF23.0
aaa(lp1266
g14
a(lp1267
F-66.5
aF14.0
aaa(lp1268
g34
a(lp1269
F73.0
aaa(lp1270
g84
a(lp1271
F490.0
aF26.0
aaa(lp1272
g84
a(lp1273
F15.0
aF-15.0
aaa(lp1274
g34
a(lp1275
F-794.0
aaa(lp1276
g11
a(lp1277
F0.0
aF-35.0
aF15.0
aF-59.5
aaa(lp1278
g14
a(lp1279
F43.0
aF-36.5
aaa(lp1280
g11
a(lp1281
F20.0
aF-9.0
aF44.0
aF-16.0
aaa(lp1282
g14
a(lp1283
F50.0
aF-10.0
aaa(lp1284
g34
a(lp1285
F-73.0
aaa(lp1286
g29
a(lp1287
aa(lp1288
g8
a(lp1289
F544.0
aF1364.0
aaa(lp1290
g11
a(lp1291
F0.0
aF-76.0
aF-58.5
aF-129.5
aaa(lp1292
g14
a(lp1293
F-138.5
aF-53.5
aaa(lp1294
g11
a(lp1295
F-81.0
aF0.0
aF-139.5
aF53.5
aaa(lp1296
g14
a(lp1297
F-58.5
aF129.5
aaa(lp1298
g14
a(lp1299
F58.5
aF130.0
aaa(lp1300
g14
a(lp1301
F139.5
aF54.0
aaa(lp1302
g14
a(lp1303
F139.0
aF-54.0
aaa(lp1304
g14
a(lp1305
F58.0
aF-130.0
aaa(lp1306
g29
a(lp1307
aasba(i__main__
Fonts
p1308
(dp1309
g3
S'i_PTMono-Bold.svg'
p1310
sg5
(lp1311
(lp1312
g8
a(lp1313
F59.0
aF110.0
aaa(lp1314
g43
a(lp1315
F176.0
aaa(lp1316
g34
a(lp1317
F280.0
aaa(lp1318
g43
a(lp1319
F-176.0
aaa(lp1320
g34
a(lp1321
F110.0
aaa(lp1322
g43
a(lp1323
F306.0
aaa(lp1324
g34
a(lp1325
F-390.0
aaa(lp1326
g43
a(lp1327
F185.0
aaa(lp1328
g34
a(lp1329
F-110.0
aaa(lp1330
g43
a(lp1331
F-491.0
aaa(lp1332
g34
a(lp1333
F110.0
aaa(lp1334
g29
a(lp1335
aa(lp1336
g8
a(lp1337
F211.0
aF636.0
aaa(lp1338
g11
a(lp1339
F0.0
aF31.0
aF23.0
aF53.0
aaa(lp1340
g14
a(lp1341
F64.0
aF22.0
aaa(lp1342
g11
a(lp1343
F42.0
aF0.0
aF67.0
aF-22.0
aaa(lp1344
g14
a(lp1345
F25.0
aF-53.0
aaa(lp1346
g11
a(lp1347
F0.0
aF-32.0
aF-25.0
aF-52.5
aaa(lp1348
g14
a(lp1349
F-67.0
aF-20.5
aaa(lp1350
g11
a(lp1351
F-41.0
aF0.0
aF-64.0
aF20.5
aaa(lp1352
g14
a(lp1353
F-23.0
aF52.5
aaa(lp1354
g29
a(lp1355
aasba(i__main__
Fonts
p1356
(dp1357
g3
S'i_AndaleMono.svg'
p1358
sg5
(lp1359
(lp1360
g8
a(lp1361
F682.0
aF1436.0
aaa(lp1362
g11
a(lp1363
F44.0
aF0.0
aF75.0
aF-31.5
aaa(lp1364
g14
a(lp1365
F31.0
aF-75.5
aaa(lp1366
g11
a(lp1367
F0.0
aF-46.0
aF-30.5
aF-77.0
aaa(lp1368
g14
a(lp1369
F-75.5
aF-31.0
aaa(lp1370
g11
a(lp1371
F-41.0
aF0.0
aF-72.5
aF32.5
aaa(lp1372
g14
a(lp1373
F-31.5
aF75.5
aaa(lp1374
g14
a(lp1375
F31.5
aF75.0
aaa(lp1376
g14
a(lp1377
F72.5
aF32.0
aaa(lp1378
g29
a(lp1379
aa(lp1380
g8
a(lp1381
F758.0
aF0.0
aaa(lp1382
g43
a(lp1383
F-156.0
aaa(lp1384
g34
a(lp1385
F907.0
aaa(lp1386
g43
a(lp1387
F-307.0
aaa(lp1388
g34
a(lp1389
F135.0
aaa(lp1390
g43
a(lp1391
F463.0
aaa(lp1392
g34
a(lp1393
F-1042.0
aaa(lp1394
g29
a(lp1395
aasba(i__main__
Fonts
p1396
(dp1397
g3
S'i_ComicSansMS.svg'
p1398
sg5
(lp1399
(lp1400
g8
a(lp1401
F330.0
aF1266.0
aaa(lp1402
g11
a(lp1403
F-48.0
aF0.0
aF-83.0
aF34.0
aaa(lp1404
g14
a(lp1405
F-35.0
aF82.0
aaa(lp1406
g14
a(lp1407
F35.0
aF82.0
aaa(lp1408
g14
a(lp1409
F83.0
aF34.0
aaa(lp1410
g14
a(lp1411
F82.5
aF-34.0
aaa(lp1412
g14
a(lp1413
F34.5
aF-82.0
aaa(lp1414
g14
a(lp1415
F-34.5
aF-82.0
aaa(lp1416
g14
a(lp1417
F-82.5
aF-34.0
aaa(lp1418
g29
a(lp1419
aa(lp1420
g8
a(lp1421
F375.0
aF454.0
aaa(lp1422
g11
a(lp1423
F0.0
aF-60.0
aF3.5
aF-179.5
aaa(lp1424
g14
a(lp1425
F3.5
aF-179.5
aaa(lp1426
g11
a(lp1427
F0.0
aF-44.0
aF-27.0
aF-72.0
aaa(lp1428
g14
a(lp1429
F-71.0
aF-28.0
aaa(lp1430
g11
a(lp1431
F-43.0
aF0.0
aF-70.5
aF28.0
aaa(lp1432
g14
a(lp1433
F-27.5
aF72.0
aaa(lp1434
g11
a(lp1435
F0.0
aF60.0
aF-3.5
aF179.5
aaa(lp1436
g14
a(lp1437
F-3.5
aF179.5
aaa(lp1438
g11
a(lp1439
F0.0
aF94.0
aF10.0
aF234.5
aaa(lp1440
g14
a(lp1441
F10.0
aF234.5
aaa(lp1442
g11
a(lp1443
F0.0
aF45.0
aF27.5
aF73.0
aaa(lp1444
g14
a(lp1445
F70.5
aF28.0
aaa(lp1446
g14
a(lp1447
F70.5
aF-28.0
aaa(lp1448
g14
a(lp1449
F27.5
aF-73.0
aaa(lp1450
g11
a(lp1451
F0.0
aF-94.0
aF-10.0
aF-234.5
aaa(lp1452
g14
a(lp1453
F-10.0
aF-234.5
aaa(lp1454
g29
a(lp1455
aasba(i__main__
Fonts
p1456
(dp1457
g3
S'i_ArialNarrow-Bold.svg'
p1458
sg5
(lp1459
(lp1460
g8
a(lp1461
F121.0
aF1206.0
aaa(lp1462
g34
a(lp1463
F260.0
aaa(lp1464
g43
a(lp1465
F231.0
aaa(lp1466
g34
a(lp1467
F-260.0
aaa(lp1468
g43
a(lp1469
F-231.0
aaa(lp1470
g29
a(lp1471
aa(lp1472
g8
a(lp1473
F121.0
aF0.0
aaa(lp1474
g34
a(lp1475
F1062.0
aaa(lp1476
g43
a(lp1477
F231.0
aaa(lp1478
g34
a(lp1479
F-1062.0
aaa(lp1480
g43
a(lp1481
F-231.0
aaa(lp1482
g29
a(lp1483
aasba(i__main__
Fonts
p1484
(dp1485
g3
S'i_KhmerSangamMN.svg'
p1486
sg5
(lp1487
(lp1488
g8
a(lp1489
F153.0
aF696.0
aaa(lp1490
g34
a(lp1491
F-86.0
aaa(lp1492
g43
a(lp1493
F-73.0
aaa(lp1494
g34
a(lp1495
F86.0
aaa(lp1496
g43
a(lp1497
F73.0
aaa(lp1498
g29
a(lp1499
aa(lp1500
g8
a(lp1501
F153.0
aF497.0
aaa(lp1502
g34
a(lp1503
F-497.0
aaa(lp1504
g43
a(lp1505
F-73.0
aaa(lp1506
g34
a(lp1507
F497.0
aaa(lp1508
g43
a(lp1509
F73.0
aaa(lp1510
g29
a(lp1511
aasba(i__main__
Fonts
p1512
(dp1513
g3
S'i_Georgia-BoldItalic.svg'
p1514
sg5
(lp1515
(lp1516
g8
a(lp1517
F713.0
aF143.0
aaa(lp1518
g84
a(lp1519
F-22.0
aF-90.0
aaa(lp1520
g11
a(lp1521
F-99.0
aF-39.0
aF-158.0
aF-59.5
aaa(lp1522
g14
a(lp1523
F-137.0
aF-20.5
aaa(lp1524
g11
a(lp1525
F-120.0
aF0.0
aF-186.5
aF58.5
aaa(lp1526
g14
a(lp1527
F-66.5
aF148.5
aaa(lp1528
g11
a(lp1529
F0.0
aF35.0
aF5.0
aF71.5
aaa(lp1530
g14
a(lp1531
F16.0
aF82.5
aaa(lp1532
g84
a(lp1533
F82.0
aF292.0
aaa(lp1534
g11
a(lp1535
F11.0
aF42.0
aF18.5
aF79.5
aaa(lp1536
g14
a(lp1537
F7.5
aF68.5
aaa(lp1538
g11
a(lp1539
F0.0
aF56.0
aF-23.0
aF78.0
aaa(lp1540
g14
a(lp1541
F-88.0
aF22.0
aaa(lp1542
g11
a(lp1543
F-32.0
aF0.0
aF-65.5
aF-10.0
aaa(lp1544
g14
a(lp1545
F-57.5
aF-19.0
aaa(lp1546
g84
a(lp1547
F22.0
aF90.0
aaa(lp1548
g11
a(lp1549
F81.0
aF33.0
aF155.0
aF56.5
aaa(lp1550
g14
a(lp1551
F140.0
aF23.5
aaa(lp1552
g11
a(lp1553
F119.0
aF0.0
aF183.5
aF-57.5
aaa(lp1554
g14
a(lp1555
F64.5
aF-149.5
aaa(lp1556
g11
a(lp1557
F0.0
aF-19.0
aF-4.5
aF-67.0
aaa(lp1558
g14
a(lp1559
F-16.5
aF-88.0
aaa(lp1560
g84
a(lp1561
F-82.0
aF-291.0
aaa(lp1562
g11
a(lp1563
F-10.0
aF-35.0
aF-18.0
aF-80.0
aaa(lp1564
g14
a(lp1565
F-8.0
aF-68.0
aaa(lp1566
g11
a(lp1567
F0.0
aF-58.0
aF26.0
aF-79.0
aaa(lp1568
g14
a(lp1569
F90.0
aF-21.0
aaa(lp1570
g11
a(lp1571
F30.0
aF0.0
aF68.0
aF10.5
aaa(lp1572
g14
a(lp1573
F55.0
aF18.5
aaa(lp1574
g29
a(lp1575
aa(lp1576
g8
a(lp1577
F734.0
aF1364.0
aaa(lp1578
g11
a(lp1579
F0.0
aF-76.0
aF-57.5
aF-129.5
aaa(lp1580
g14
a(lp1581
F-138.5
aF-53.5
aaa(lp1582
g14
a(lp1583
F-139.0
aF53.5
aaa(lp1584
g14
a(lp1585
F-58.0
aF129.5
aaa(lp1586
g14
a(lp1587
F58.0
aF130.0
aaa(lp1588
g14
a(lp1589
F139.0
aF54.0
aaa(lp1590
g14
a(lp1591
F138.5
aF-54.0
aaa(lp1592
g14
a(lp1593
F57.5
aF-130.0
aaa(lp1594
g29
a(lp1595
aasba(i__main__
Fonts
p1596
(dp1597
g3
S'i_OriyaMN.svg'
p1598
sg5
(lp1599
(lp1600
g8
a(lp1601
F196.0
aF985.0
aaa(lp1602
g84
a(lp1603
F143.0
aF58.0
aaa(lp1604
g43
a(lp1605
F59.0
aaa(lp1606
g34
a(lp1607
F-1043.0
aaa(lp1608
g43
a(lp1609
F-202.0
aaa(lp1610
g34
a(lp1611
F985.0
aaa(lp1612
g29
a(lp1613
aa(lp1614
g8
a(lp1615
F180.0
aF1416.0
aaa(lp1616
g11
a(lp1617
F0.0
aF24.0
aF9.0
aF45.0
aaa(lp1618
g14
a(lp1619
F25.0
aF37.0
aaa(lp1620
g14
a(lp1621
F37.0
aF25.0
aaa(lp1622
g14
a(lp1623
F45.0
aF9.0
aaa(lp1624
g14
a(lp1625
F45.0
aF-9.0
aaa(lp1626
g14
a(lp1627
F37.0
aF-25.0
aaa(lp1628
g14
a(lp1629
F25.0
aF-37.0
aaa(lp1630
g14
a(lp1631
F9.0
aF-45.0
aaa(lp1632
g14
a(lp1633
F-9.0
aF-45.0
aaa(lp1634
g14
a(lp1635
F-25.0
aF-37.0
aaa(lp1636
g14
a(lp1637
F-37.0
aF-25.0
aaa(lp1638
g14
a(lp1639
F-45.0
aF-9.0
aaa(lp1640
g14
a(lp1641
F-45.0
aF9.0
aaa(lp1642
g14
a(lp1643
F-37.0
aF25.0
aaa(lp1644
g14
a(lp1645
F-25.0
aF37.0
aaa(lp1646
g14
a(lp1647
F-9.0
aF45.0
aaa(lp1648
g29
a(lp1649
aasba(i__main__
Fonts
p1650
(dp1651
g3
S'i_HoeflerText-Regular.svg'
p1652
sg5
(lp1653
(lp1654
g8
a(lp1655
F392.0
aF1225.0
aaa(lp1656
g11
a(lp1657
F0.0
aF-42.0
aF-30.5
aF-73.0
aaa(lp1658
g14
a(lp1659
F-73.5
aF-31.0
aaa(lp1660
g14
a(lp1661
F-73.5
aF31.0
aaa(lp1662
g14
a(lp1663
F-30.5
aF73.0
aaa(lp1664
g11
a(lp1665
F0.0
aF44.0
aF30.0
aF74.0
aaa(lp1666
g14
a(lp1667
F74.0
aF30.0
aaa(lp1668
g11
a(lp1669
F43.0
aF0.0
aF73.5
aF-30.0
aaa(lp1670
g14
a(lp1671
F30.5
aF-74.0
aaa(lp1672
g29
a(lp1673
aa(lp1674
g8
a(lp1675
F532.0
aF16.0
aaa(lp1676
g11
a(lp1677
F0.0
aF-28.0
aF-16.0
aF-28.0
aaa(lp1678
g11
a(lp1679
F-41.0
aF0.0
aF-105.0
aF6.0
aaa(lp1680
g11
a(lp1681
F-72.0
aF6.0
aF-121.0
aF6.0
aaa(lp1682
g11
a(lp1683
F-50.0
aF0.0
aF-120.0
aF-6.0
aaa(lp1684
g11
a(lp1685
F-63.0
aF-6.0
aF-104.0
aF-6.0
aaa(lp1686
g11
a(lp1687
F-16.0
aF0.0
aF-16.0
aF28.0
aaa(lp1688
g11
a(lp1689
F0.0
aF25.0
aF16.0
aF27.0
aaa(lp1690
g11
a(lp1691
F85.0
aF11.0
aF109.5
aF41.0
aaa(lp1692
g14
a(lp1693
F24.5
aF128.0
aaa(lp1694
g34
a(lp1695
F370.0
aaa(lp1696
g11
a(lp1697
F0.0
aF80.0
aF-20.5
aF105.0
aaa(lp1698
g14
a(lp1699
F-89.5
aF33.0
aaa(lp1700
g11
a(lp1701
F-16.0
aF0.0
aF-16.0
aF26.0
aaa(lp1702
g11
a(lp1703
F0.0
aF24.0
aF16.0
aF24.0
aaa(lp1704
g11
a(lp1705
F105.0
aF27.0
aF172.0
aF57.5
aaa(lp1706
g14
a(lp1707
F84.0
aF50.5
aaa(lp1708
g11
a(lp1709
F10.0
aF12.0
aF22.0
aF12.0
aaa(lp1710
g11
a(lp1711
F28.0
aF0.0
aF28.0
aF-16.0
aaa(lp1712
g11
a(lp1713
F-16.0
aF-224.0
aF-16.0
aF-348.0
aaa(lp1714
g34
a(lp1715
F-314.0
aaa(lp1716
g11
a(lp1717
F0.0
aF-98.0
aF24.5
aF-128.0
aaa(lp1718
g14
a(lp1719
F111.5
aF-41.0
aaa(lp1720
g11
a(lp1721
F16.0
aF-2.0
aF16.0
aF-27.0
aaa(lp1722
g29
a(lp1723
aasba(i__main__
Fonts
p1724
(dp1725
g3
S'i_Luminari-Regular.svg'
p1726
sg5
(lp1727
(lp1728
g8
a(lp1729
F187.0
aF174.0
aaa(lp1730
g11
a(lp1731
F0.0
aF-21.0
aF1.0
aF-40.5
aaa(lp1732
g14
a(lp1733
F7.0
aF-33.5
aaa(lp1734
g14
a(lp1735
F18.0
aF-22.5
aaa(lp1736
g14
a(lp1737
F34.0
aF-8.5
aaa(lp1738
g11
a(lp1739
F11.0
aF0.0
aF25.0
aF2.5
aaa(lp1740
g14
a(lp1741
F26.5
aF6.5
aaa(lp1742
g14
a(lp1743
F22.0
aF8.0
aaa(lp1744
g14
a(lp1745
F11.5
aF6.0
aaa(lp1746
g11
a(lp1747
F3.0
aF3.0
aF4.0
aF0.0
aaa(lp1748
g14
a(lp1749
F0.5
aF-7.5
aaa(lp1750
g14
a(lp1751
F-2.5
aF-9.0
aaa(lp1752
g14
a(lp1753
F-5.0
aF-6.5
aaa(lp1754
g11
a(lp1755
F-10.0
aF-5.0
aF-35.0
aF-18.0
aaa(lp1756
g14
a(lp1757
F-59.0
aF-27.0
aaa(lp1758
g11
a(lp1759
F-32.0
aF-14.0
aF-62.5
aF-23.5
aaa(lp1760
g14
a(lp1761
F-50.5
aF-9.5
aaa(lp1762
g11
a(lp1763
F-23.0
aF0.0
aF-36.0
aF14.0
aaa(lp1764
g14
a(lp1765
F-13.0
aF35.0
aaa(lp1766
g11
a(lp1767
F0.0
aF7.0
aF0.5
aF12.0
aaa(lp1768
g14
a(lp1769
F1.5
aF13.0
aaa(lp1770
g11
a(lp1771
F1.0
aF10.0
aF3.5
aF36.5
aaa(lp1772
g14
a(lp1773
F5.0
aF59.5
aaa(lp1774
g14
a(lp1775
F4.5
aF66.5
aaa(lp1776
g14
a(lp1777
F2.0
aF57.5
aaa(lp1778
g34
a(lp1779
F35.0
aaa(lp1780
g11
a(lp1781
F0.0
aF26.0
aF-3.0
aF46.0
aaa(lp1782
g14
a(lp1783
F-10.0
aF31.0
aaa(lp1784
g11
a(lp1785
F-5.0
aF7.0
aF-12.5
aF11.5
aaa(lp1786
g14
a(lp1787
F-18.5
aF4.5
aaa(lp1788
g11
a(lp1789
F-6.0
aF0.0
aF-12.0
aF-2.5
aaa(lp1790
g14
a(lp1791
F-9.0
aF-2.5
aaa(lp1792
g11
a(lp1793
F-2.0
aF0.0
aF-6.5
aF6.0
aaa(lp1794
g14
a(lp1795
F0.5
aF9.0
aaa(lp1796
g11
a(lp1797
F7.0
aF5.0
aF29.0
aF16.0
aaa(lp1798
g84
a(lp1799
F48.0
aF24.0
aaa(lp1800
g11
a(lp1801
F28.0
aF14.0
aF54.0
aF24.5
aaa(lp1802
g14
a(lp1803
F37.0
aF10.5
aaa(lp1804
g14
a(lp1805
F15.0
aF-6.5
aaa(lp1806
g14
a(lp1807
F4.0
aF-14.5
aaa(lp1808
g34
a(lp1809
F-4.0
aaa(lp1810
g11
a(lp1811
F0.0
aF-10.0
aF-3.0
aF-32.0
aaa(lp1812
g14
a(lp1813
F-6.5
aF-54.0
aaa(lp1814
g14
a(lp1815
F-6.5
aF-74.0
aaa(lp1816
g14
a(lp1817
F-3.0
aF-91.0
aaa(lp1818
g34
a(lp1819
F-48.0
aaa(lp1820
g29
a(lp1821
aa(lp1822
g8
a(lp1823
F147.0
aF694.0
aaa(lp1824
g11
a(lp1825
F5.0
aF-1.0
aF16.5
aF-11.0
aaa(lp1826
g14
a(lp1827
F23.5
aF-23.0
aaa(lp1828
g14
a(lp1829
F21.0
aF-25.0
aaa(lp1830
g14
a(lp1831
F9.0
aF-16.0
aaa(lp1832
g11
a(lp1833
F0.0
aF-5.0
aF-12.0
aF-15.0
aaa(lp1834
g14
a(lp1835
F-27.5
aF-20.5
aaa(lp1836
g14
a(lp1837
F-30.0
aF-18.5
aaa(lp1838
g14
a(lp1839
F-20.5
aF-8.0
aaa(lp1840
g11
a(lp1841
F-3.0
aF0.0
aF-14.5
aF9.5
aaa(lp1842
g14
a(lp1843
F-23.5
aF21.5
aaa(lp1844
g14
a(lp1845
F-21.5
aF23.5
aaa(lp1846
g14
a(lp1847
F-9.5
aF15.5
aaa(lp1848
g11
a(lp1849
F0.0
aF5.0
aF13.0
aF15.5
aaa(lp1850
g14
a(lp1851
F28.5
aF22.0
aaa(lp1852
g14
a(lp1853
F30.0
aF20.0
aaa(lp1854
g14
a(lp1855
F17.5
aF9.5
aaa(lp1856
g29
a(lp1857
aasba(i__main__
Fonts
p1858
(dp1859
g3
S'i_BigCaslon-Medium.svg'
p1860
sg5
(lp1861
(lp1862
g8
a(lp1863
F177.0
aF641.0
aaa(lp1864
g11
a(lp1865
F0.0
aF23.0
aF-15.5
aF38.0
aaa(lp1866
g14
a(lp1867
F-38.5
aF15.0
aaa(lp1868
g14
a(lp1869
F-38.5
aF-15.0
aaa(lp1870
g14
a(lp1871
F-15.5
aF-38.0
aaa(lp1872
g11
a(lp1873
F0.0
aF-22.0
aF16.0
aF-38.0
aaa(lp1874
g14
a(lp1875
F38.0
aF-16.0
aaa(lp1876
g11
a(lp1877
F23.0
aF0.0
aF38.5
aF15.5
aaa(lp1878
g14
a(lp1879
F15.5
aF38.5
aaa(lp1880
g29
a(lp1881
aa(lp1882
g8
a(lp1883
F233.0
aF0.0
aaa(lp1884
g34
a(lp1885
F10.0
aaa(lp1886
g11
a(lp1887
F-10.0
aF2.0
aF-20.5
aF2.5
aaa(lp1888
g14
a(lp1889
F-19.5
aF2.5
aaa(lp1890
g14
a(lp1891
F-15.5
aF6.5
aaa(lp1892
g14
a(lp1893
F-8.5
aF14.5
aaa(lp1894
g34
a(lp1895
F447.0
aaa(lp1896
g43
a(lp1897
F-6.0
aaa(lp1898
g84
a(lp1899
F-135.0
aF-44.0
aaa(lp1900
g34
a(lp1901
F-6.0
aaa(lp1902
g11
a(lp1903
F14.0
aF-5.0
aF26.5
aF-11.0
aaa(lp1904
g14
a(lp1905
F21.5
aF-12.0
aaa(lp1906
g11
a(lp1907
F7.0
aF-5.0
aF8.5
aF-11.0
aaa(lp1908
g14
a(lp1909
F1.5
aF-14.0
aaa(lp1910
g34
a(lp1911
F-343.0
aaa(lp1912
g11
a(lp1913
F0.0
aF-9.0
aF-6.5
aF-15.0
aaa(lp1914
g14
a(lp1915
F-16.0
aF-9.5
aaa(lp1916
g14
a(lp1917
F-21.5
aF-5.0
aaa(lp1918
g14
a(lp1919
F-24.0
aF-2.5
aaa(lp1920
g34
a(lp1921
F-10.0
aaa(lp1922
g43
a(lp1923
F215.0
aaa(lp1924
g29
a(lp1925
aasba(i__main__
Fonts
p1926
(dp1927
g3
S'i_PTSans-Regular.svg'
p1928
sg5
(lp1929
(lp1930
g8
a(lp1931
F94.0
aF500.0
aaa(lp1932
g43
a(lp1933
F80.0
aaa(lp1934
g34
a(lp1935
F-500.0
aaa(lp1936
g43
a(lp1937
F-80.0
aaa(lp1938
g34
a(lp1939
F500.0
aaa(lp1940
g29
a(lp1941
aa(lp1942
g8
a(lp1943
F77.0
aF652.0
aaa(lp1944
g11
a(lp1945
F0.0
aF23.0
aF15.5
aF39.5
aaa(lp1946
g14
a(lp1947
F39.5
aF16.5
aaa(lp1948
g14
a(lp1949
F41.0
aF-16.5
aaa(lp1950
g14
a(lp1951
F17.0
aF-39.5
aaa(lp1952
g14
a(lp1953
F-17.0
aF-38.0
aaa(lp1954
g14
a(lp1955
F-41.0
aF-15.0
aaa(lp1956
g14
a(lp1957
F-39.5
aF15.0
aaa(lp1958
g14
a(lp1959
F-15.5
aF38.0
aaa(lp1960
g29
a(lp1961
aasba(i__main__
Fonts
p1962
(dp1963
g3
S'pisces_Wingdings-Regular.svg'
p1964
sg5
(lp1965
(lp1966
g8
a(lp1967
F646.0
aF716.0
aaa(lp1968
g11
a(lp1969
F0.0
aF-183.0
aF-84.5
aF-386.5
aaa(lp1970
g14
a(lp1971
F-227.5
aF-366.5
aaa(lp1972
g43
a(lp1973
F-161.0
aaa(lp1974
g11
a(lp1975
F326.0
aF344.0
aF326.0
aF753.0
aaa(lp1976
g43
a(lp1977
F-315.0
aaa(lp1978
g34
a(lp1979
F111.0
aaa(lp1980
g43
a(lp1981
F315.0
aaa(lp1982
g11
a(lp1983
F-20.0
aF355.0
aF-326.0
aF690.0
aaa(lp1984
g43
a(lp1985
F153.0
aaa(lp1986
g11
a(lp1987
F280.0
aF-300.0
aF320.0
aF-690.0
aaa(lp1988
g43
a(lp1989
F306.0
aaa(lp1990
g11
a(lp1991
F40.0
aF390.0
aF320.0
aF690.0
aaa(lp1992
g43
a(lp1993
F153.0
aaa(lp1994
g11
a(lp1995
F-306.0
aF-335.0
aF-326.0
aF-690.0
aaa(lp1996
g43
a(lp1997
F315.0
aaa(lp1998
g34
a(lp1999
F-111.0
aaa(lp2000
g43
a(lp2001
F-315.0
aaa(lp2002
g11
a(lp2003
F0.0
aF-409.0
aF326.0
aF-753.0
aaa(lp2004
g43
a(lp2005
F-161.0
aaa(lp2006
g11
a(lp2007
F-143.0
aF163.0
aF-227.5
aF366.5
aaa(lp2008
g14
a(lp2009
F-84.5
aF386.5
aaa(lp2010
g43
a(lp2011
F-306.0
aaa(lp2012
g29
a(lp2013
aasba(i__main__
Fonts
p2014
(dp2015
g3
S'i_Herculanum.svg'
p2016
sg5
(lp2017
(lp2018
g8
a(lp2019
F134.0
aF309.0
aaa(lp2020
g11
a(lp2021
F0.0
aF-79.0
aF0.5
aF-134.5
aaa(lp2022
g14
a(lp2023
F1.5
aF-92.0
aaa(lp2024
g14
a(lp2025
F3.5
aF-57.0
aaa(lp2026
g14
a(lp2027
F6.5
aF-30.5
aaa(lp2028
g14
a(lp2029
F9.5
aF-12.5
aaa(lp2030
g14
a(lp2031
F12.5
aF-2.5
aaa(lp2032
g11
a(lp2033
F17.0
aF0.0
aF24.5
aF19.5
aaa(lp2034
g14
a(lp2035
F7.5
aF79.5
aaa(lp2036
g11
a(lp2037
F0.0
aF180.0
aF2.5
aF283.5
aaa(lp2038
g14
a(lp2039
F6.5
aF147.5
aaa(lp2040
g11
a(lp2041
F1.0
aF17.0
aF5.5
aF29.5
aaa(lp2042
g14
a(lp2043
F4.5
aF24.5
aaa(lp2044
g11
a(lp2045
F0.0
aF6.0
aF-14.0
aF14.5
aaa(lp2046
g14
a(lp2047
F-25.0
aF8.5
aaa(lp2048
g11
a(lp2049
F-7.0
aF0.0
aF-19.5
aF-7.5
aaa(lp2050
g14
a(lp2051
F-24.5
aF-17.5
aaa(lp2052
g14
a(lp2053
F-21.0
aF-21.0
aaa(lp2054
g14
a(lp2055
F-9.0
aF-17.0
aaa(lp2056
g11
a(lp2057
F0.0
aF-8.0
aF3.5
aF-16.5
aaa(lp2058
g14
a(lp2059
F13.5
aF-19.5
aaa(lp2060
g11
a(lp2061
F6.0
aF-7.0
aF7.0
aF-16.5
aaa(lp2062
g14
a(lp2063
F1.0
aF-23.5
aaa(lp2064
g11
a(lp2065
F0.0
aF-26.0
aF1.5
aF-56.0
aaa(lp2066
g14
a(lp2067
F1.5
aF-83.0
aaa(lp2068
g29
a(lp2069
aasba(i__main__
Fonts
p2070
(dp2071
g3
S'i_PlantagenetCherokee.svg'
p2072
sg5
(lp2073
(lp2074
g8
a(lp2075
F190.0
aF121.0
aaa(lp2076
g11
a(lp2077
F0.0
aF-25.0
aF1.0
aF-42.0
aaa(lp2078
g14
a(lp2079
F7.0
aF-28.0
aaa(lp2080
g14
a(lp2081
F18.5
aF-17.0
aaa(lp2082
g14
a(lp2083
F35.5
aF-9.0
aaa(lp2084
g11
a(lp2085
F6.0
aF-1.0
aF9.0
aF-5.5
aaa(lp2086
g14
a(lp2087
F3.0
aF-10.5
aaa(lp2088
g11
a(lp2089
F0.0
aF-5.0
aF-3.0
aF-9.5
aaa(lp2090
g14
a(lp2091
F-9.0
aF-4.5
aaa(lp2092
g11
a(lp2093
F-18.0
aF0.0
aF-47.0
aF3.5
aaa(lp2094
g14
a(lp2095
F-59.0
aF3.5
aaa(lp2096
g11
a(lp2097
F-32.0
aF0.0
aF-62.5
aF-3.5
aaa(lp2098
g14
a(lp2099
F-58.5
aF-3.5
aaa(lp2100
g11
a(lp2101
F-5.0
aF0.0
aF-8.0
aF4.5
aaa(lp2102
g14
a(lp2103
F-3.0
aF9.5
aaa(lp2104
g11
a(lp2105
F0.0
aF6.0
aF3.0
aF10.5
aaa(lp2106
g14
a(lp2107
F9.0
aF5.5
aaa(lp2108
g11
a(lp2109
F26.0
aF3.0
aF40.5
aF9.0
aaa(lp2110
g14
a(lp2111
F21.0
aF16.5
aaa(lp2112
g14
a(lp2113
F7.5
aF26.0
aaa(lp2114
g14
a(lp2115
F1.0
aF38.5
aaa(lp2116
g34
a(lp2117
F161.0
aaa(lp2118
g11
a(lp2119
F0.0
aF43.0
aF-2.0
aF69.0
aaa(lp2120
g14
a(lp2121
F-9.0
aF39.5
aaa(lp2122
g14
a(lp2123
F-21.0
aF18.5
aaa(lp2124
g14
a(lp2125
F-38.0
aF8.0
aaa(lp2126
g11
a(lp2127
F-6.0
aF0.0
aF-9.0
aF5.0
aaa(lp2128
g14
a(lp2129
F-3.0
aF10.0
aaa(lp2130
g14
a(lp2131
F3.0
aF10.0
aaa(lp2132
g14
a(lp2133
F9.0
aF5.0
aaa(lp2134
g11
a(lp2135
F10.0
aF1.0
aF24.5
aF2.0
aaa(lp2136
g14
a(lp2137
F30.5
aF2.5
aaa(lp2138
g14
a(lp2139
F32.5
aF4.0
aaa(lp2140
g14
a(lp2141
F29.5
aF5.5
aaa(lp2142
g11
a(lp2143
F11.0
aF2.0
aF17.5
aF4.5
aaa(lp2144
g14
a(lp2145
F10.5
aF2.5
aaa(lp2146
g11
a(lp2147
F12.0
aF0.0
aF15.5
aF-7.0
aaa(lp2148
g14
a(lp2149
F3.5
aF-13.0
aaa(lp2150
g34
a(lp2151
F-321.0
aaa(lp2152
g29
a(lp2153
aa(lp2154
g8
a(lp2155
F137.0
aF564.0
aaa(lp2156
g11
a(lp2157
F-25.0
aF0.0
aF-43.0
aF15.5
aaa(lp2158
g14
a(lp2159
F-18.0
aF38.5
aaa(lp2160
g14
a(lp2161
F17.0
aF39.0
aaa(lp2162
g14
a(lp2163
F42.0
aF16.0
aaa(lp2164
g11
a(lp2165
F24.0
aF0.0
aF39.5
aF-16.5
aaa(lp2166
g14
a(lp2167
F15.5
aF-39.5
aaa(lp2168
g11
a(lp2169
F0.0
aF-22.0
aF-15.0
aF-37.5
aaa(lp2170
g14
a(lp2171
F-38.0
aF-15.5
aaa(lp2172
g29
a(lp2173
aasba(i__main__
Fonts
p2174
(dp2175
g3
S'i_Athelas-Regular.svg'
p2176
sg5
(lp2177
(lp2178
g8
a(lp2179
F142.0
aF0.0
aaa(lp2180
g11
a(lp2181
F-17.0
aF0.0
aF-34.5
aF-0.5
aaa(lp2182
g14
a(lp2183
F-32.5
aF-1.5
aaa(lp2184
g14
a(lp2185
F-26.0
aF-2.0
aaa(lp2186
g14
a(lp2187
F-14.0
aF-1.0
aaa(lp2188
g11
a(lp2189
F0.0
aF1.0
aF-1.0
aF7.0
aaa(lp2190
g14
a(lp2191
F-1.0
aF9.0
aaa(lp2192
g11
a(lp2193
F0.0
aF10.0
aF9.0
aF12.0
aaa(lp2194
g11
a(lp2195
F26.0
aF5.0
aF42.0
aF12.0
aaa(lp2196
g14
a(lp2197
F16.0
aF23.0
aaa(lp2198
g34
a(lp2199
F272.0
aaa(lp2200
g11
a(lp2201
F0.0
aF30.0
aF-10.5
aF43.0
aaa(lp2202
g14
a(lp2203
F-45.5
aF16.0
aaa(lp2204
g11
a(lp2205
F-13.0
aF2.0
aF-13.0
aF14.0
aaa(lp2206
g11
a(lp2207
F0.0
aF5.0
aF2.0
aF13.0
aaa(lp2208
g11
a(lp2209
F13.0
aF0.0
aF36.5
aF1.5
aaa(lp2210
g14
a(lp2211
F38.5
aF3.5
aaa(lp2212
g11
a(lp2213
F23.0
aF4.0
aF41.0
aF8.5
aaa(lp2214
g14
a(lp2215
F26.0
aF4.5
aaa(lp2216
g11
a(lp2217
F14.0
aF0.0
aF14.0
aF-15.0
aaa(lp2218
g11
a(lp2219
F0.0
aF-14.0
aF-3.0
aF-33.5
aaa(lp2220
g14
a(lp2221
F-3.0
aF-51.5
aaa(lp2222
g34
a(lp2223
F-276.0
aaa(lp2224
g11
a(lp2225
F0.0
aF-16.0
aF15.5
aF-23.0
aaa(lp2226
g14
a(lp2227
F43.5
aF-12.0
aaa(lp2228
g11
a(lp2229
F8.0
aF-2.0
aF8.0
aF-12.0
aaa(lp2230
g11
a(lp2231
F0.0
aF-3.0
aF-0.5
aF-9.0
aaa(lp2232
g14
a(lp2233
F-1.5
aF-7.0
aaa(lp2234
g11
a(lp2235
F-3.0
aF0.0
aF-13.5
aF1.0
aaa(lp2236
g14
a(lp2237
F-25.5
aF2.0
aaa(lp2238
g14
a(lp2239
F-32.5
aF1.5
aaa(lp2240
g14
a(lp2241
F-34.5
aF0.5
aaa(lp2242
g29
a(lp2243
aa(lp2244
g8
a(lp2245
F84.0
aF601.0
aaa(lp2246
g11
a(lp2247
F0.0
aF24.0
aF16.5
aF41.5
aaa(lp2248
g14
a(lp2249
F41.5
aF17.5
aaa(lp2250
g11
a(lp2251
F24.0
aF0.0
aF40.0
aF-17.5
aaa(lp2252
g14
a(lp2253
F16.0
aF-41.5
aaa(lp2254
g11
a(lp2255
F0.0
aF-26.0
aF-16.0
aF-42.0
aaa(lp2256
g14
a(lp2257
F-40.0
aF-16.0
aaa(lp2258
g11
a(lp2259
F-25.0
aF0.0
aF-41.5
aF16.0
aaa(lp2260
g14
a(lp2261
F-16.5
aF42.0
aaa(lp2262
g29
a(lp2263
aasba(i__main__
Fonts
p2264
(dp2265
g3
S'i_DevanagariSangamMN.svg'
p2266
sg5
(lp2267
(lp2268
g8
a(lp2269
F279.0
aF1268.0
aaa(lp2270
g34
a(lp2271
F-156.0
aaa(lp2272
g43
a(lp2273
F-133.0
aaa(lp2274
g34
a(lp2275
F156.0
aaa(lp2276
g43
a(lp2277
F133.0
aaa(lp2278
g29
a(lp2279
aa(lp2280
g8
a(lp2281
F279.0
aF906.0
aaa(lp2282
g34
a(lp2283
F-906.0
aaa(lp2284
g43
a(lp2285
F-133.0
aaa(lp2286
g34
a(lp2287
F906.0
aaa(lp2288
g43
a(lp2289
F133.0
aaa(lp2290
g29
a(lp2291
aasba(i__main__
Fonts
p2292
(dp2293
g3
S'i_Tahoma.svg'
p2294
sg5
(lp2295
(lp2296
g8
a(lp2297
F328.0
aF0.0
aaa(lp2298
g43
a(lp2299
F-188.0
aaa(lp2300
g34
a(lp2301
F1117.0
aaa(lp2302
g43
a(lp2303
F188.0
aaa(lp2304
g34
a(lp2305
F-1117.0
aaa(lp2306
g29
a(lp2307
aa(lp2308
g8
a(lp2309
F341.0
aF1304.0
aaa(lp2310
g43
a(lp2311
F-214.0
aaa(lp2312
g34
a(lp2313
F195.0
aaa(lp2314
g43
a(lp2315
F214.0
aaa(lp2316
g34
a(lp2317
F-195.0
aaa(lp2318
g29
a(lp2319
aasba(i__main__
Fonts
p2320
(dp2321
g3
S'i_SignPainter-HouseScript.svg'
p2322
sg5
(lp2323
(lp2324
g8
a(lp2325
F232.0
aF459.0
aaa(lp2326
S'c'
p2327
a(lp2328
F13.0
aF-26.0
aF6.0
aF-53.0
aF-7.0
aF-67.0
aaa(lp2329
S's'
p2330
a(lp2331
F-41.0
aF-11.0
aF-56.0
aF15.0
aaa(lp2332
g2327
a(lp2333
F-16.0
aF27.0
aF-11.0
aF57.0
aF5.0
aF74.0
aaa(lp2334
g2330
a(lp2335
F45.0
aF5.0
aF58.0
aF-22.0
aaa(lp2336
g29
a(lp2337
aa(lp2338
g8
a(lp2339
F69.0
aF-15.0
aaa(lp2340
g2327
a(lp2341
F-76.0
aF0.0
aF-95.0
aF64.0
aF-67.0
aF146.0
aaa(lp2342
g2327
a(lp2343
F25.0
aF73.0
aF91.0
aF191.0
aF128.0
aF243.0
aaa(lp2344
g2327
a(lp2345
F9.0
aF12.0
aF16.0
aF15.0
aF24.0
aF6.0
aaa(lp2346
g2327
a(lp2347
F15.0
aF-16.0
aF23.0
aF-59.0
aF-1.0
aF-109.0
aaa(lp2348
g2327
a(lp2349
F-21.0
aF-44.0
aF-63.0
aF-112.0
aF-84.0
aF-162.0
aaa(lp2350
g2327
a(lp2351
F-24.0
aF-58.0
aF-22.0
aF-97.0
aF10.0
aF-95.0
aaa(lp2352
g2327
a(lp2353
F45.0
aF2.0
aF100.0
aF68.0
aF130.0
aF137.0
aaa(lp2354
g2327
a(lp2355
F5.0
aF9.0
aF12.0
aF8.0
aF16.0
aF0.0
aaa(lp2356
g2327
a(lp2357
F8.0
aF-16.0
aF5.0
aF-37.0
aF-7.0
aF-62.0
aaa(lp2358
g2327
a(lp2359
F-30.0
aF-62.0
aF-93.0
aF-104.0
aF-149.0
aF-104.0
aaa(lp2360
g29
a(lp2361
aasba(i__main__
Fonts
p2362
(dp2363
g3
S'i_Apple-Chancery.svg'
p2364
sg5
(lp2365
(lp2366
g8
a(lp2367
F591.0
aF291.0
aaa(lp2368
g11
a(lp2369
F27.0
aF-16.0
aF27.0
aF-31.0
aaa(lp2370
g11
a(lp2371
F0.0
aF-36.0
aF-87.0
aF-142.0
aaa(lp2372
g11
a(lp2373
F-117.0
aF-144.0
aF-217.0
aF-144.0
aaa(lp2374
g11
a(lp2375
F-73.0
aF0.0
aF-73.0
aF97.0
aaa(lp2376
g11
a(lp2377
F0.0
aF41.0
aF30.0
aF252.0
aaa(lp2378
g84
a(lp2379
F39.0
aF272.0
aaa(lp2380
g84
a(lp2381
F10.0
aF69.0
aaa(lp2382
g84
a(lp2383
F8.0
aF55.0
aaa(lp2384
g11
a(lp2385
F5.0
aF35.0
aF5.0
aF59.0
aaa(lp2386
g11
a(lp2387
F0.0
aF50.0
aF-28.0
aF50.0
aaa(lp2388
g11
a(lp2389
F-78.0
aF0.0
aF-168.0
aF-172.0
aaa(lp2390
g11
a(lp2391
F-19.0
aF17.0
aF-19.0
aF34.0
aaa(lp2392
g11
a(lp2393
F0.0
aF61.0
aF112.5
aF164.0
aaa(lp2394
g14
a(lp2395
F179.5
aF103.0
aaa(lp2396
g11
a(lp2397
F75.0
aF0.0
aF75.0
aF-104.0
aaa(lp2398
g11
a(lp2399
F0.0
aF-20.0
aF-8.0
aF-82.0
aaa(lp2400
g84
a(lp2401
F-9.0
aF-67.0
aaa(lp2402
g11
a(lp2403
F-1.0
aF-8.0
aF-11.0
aF-81.0
aaa(lp2404
g84
a(lp2405
F-41.0
aF-286.0
aaa(lp2406
g84
a(lp2407
F-10.0
aF-64.0
aaa(lp2408
g11
a(lp2409
F-13.0
aF-95.0
aF-13.0
aF-127.0
aaa(lp2410
g11
a(lp2411
F0.0
aF-43.0
aF25.0
aF-43.0
aaa(lp2412
g11
a(lp2413
F84.0
aF0.0
aF173.0
aF188.0
aaa(lp2414
g29
a(lp2415
aa(lp2416
g8
a(lp2417
F390.0
aF1086.0
aaa(lp2418
g84
a(lp2419
F84.0
aF207.0
aaa(lp2420
g11
a(lp2421
F112.0
aF46.0
aF184.0
aF127.0
aaa(lp2422
g11
a(lp2423
F10.0
aF-14.0
aF10.0
aF-29.0
aaa(lp2424
g11
a(lp2425
F0.0
aF-134.0
aF-278.0
aF-305.0
aaa(lp2426
g29
a(lp2427
aasba(i__main__
Fonts
p2428
(dp2429
g3
S'i_Silom.svg'
p2430
sg5
(lp2431
(lp2432
g8
a(lp2433
F83.0
aF667.0
aaa(lp2434
g34
a(lp2435
F83.0
aaa(lp2436
g43
a(lp2437
F167.0
aaa(lp2438
g34
a(lp2439
F-83.0
aaa(lp2440
g43
a(lp2441
F-167.0
aaa(lp2442
g29
a(lp2443
aa(lp2444
g8
a(lp2445
F83.0
aF0.0
aaa(lp2446
g34
a(lp2447
F583.0
aaa(lp2448
g43
a(lp2449
F167.0
aaa(lp2450
g34
a(lp2451
F-583.0
aaa(lp2452
g43
a(lp2453
F-167.0
aaa(lp2454
g29
a(lp2455
aasba(i__main__
Fonts
p2456
(dp2457
g3
S'i_CourierNewPS-ItalicMT.svg'
p2458
sg5
(lp2459
(lp2460
g8
a(lp2461
F931.0
aF1297.0
aaa(lp2462
g84
a(lp2463
F-46.0
aF-217.0
aaa(lp2464
g43
a(lp2465
F-123.0
aaa(lp2466
g84
a(lp2467
F46.0
aF217.0
aaa(lp2468
g43
a(lp2469
F123.0
aaa(lp2470
g29
a(lp2471
aa(lp2472
g8
a(lp2473
F843.0
aF866.0
aaa(lp2474
g84
a(lp2475
F-166.0
aF-782.0
aaa(lp2476
g43
a(lp2477
F330.0
aaa(lp2478
g11
a(lp2479
F28.0
aF0.0
aF38.0
aF-8.5
aaa(lp2480
g14
a(lp2481
F10.0
aF-24.5
aaa(lp2482
g11
a(lp2483
F0.0
aF-21.0
aF-16.5
aF-36.0
aaa(lp2484
g14
a(lp2485
F-49.5
aF-15.0
aaa(lp2486
g43
a(lp2487
F-744.0
aaa(lp2488
g11
a(lp2489
F-28.0
aF0.0
aF-38.0
aF9.0
aaa(lp2490
g14
a(lp2491
F-10.0
aF25.0
aaa(lp2492
g11
a(lp2493
F0.0
aF20.0
aF16.5
aF35.0
aaa(lp2494
g14
a(lp2495
F49.5
aF15.0
aaa(lp2496
g43
a(lp2497
F330.0
aaa(lp2498
g84
a(lp2499
F148.0
aF697.0
aaa(lp2500
g43
a(lp2501
F-245.0
aaa(lp2502
g11
a(lp2503
F-28.0
aF0.0
aF-38.5
aF9.0
aaa(lp2504
g14
a(lp2505
F-10.5
aF25.0
aaa(lp2506
g11
a(lp2507
F0.0
aF20.0
aF17.0
aF35.5
aaa(lp2508
g14
a(lp2509
F50.0
aF15.5
aaa(lp2510
g43
a(lp2511
F329.0
aaa(lp2512
g29
a(lp2513
aasba(i__main__
Fonts
p2514
(dp2515
g3
S'i_CourierNewPSMT.svg'
p2516
sg5
(lp2517
(lp2518
g8
a(lp2519
F656.0
aF1297.0
aaa(lp2520
g34
a(lp2521
F-217.0
aaa(lp2522
g43
a(lp2523
F-124.0
aaa(lp2524
g34
a(lp2525
F217.0
aaa(lp2526
g43
a(lp2527
F124.0
aaa(lp2528
g29
a(lp2529
aa(lp2530
g8
a(lp2531
F659.0
aF866.0
aaa(lp2532
g34
a(lp2533
F-782.0
aaa(lp2534
g43
a(lp2535
F330.0
aaa(lp2536
g11
a(lp2537
F31.0
aF0.0
aF44.0
aF-11.5
aaa(lp2538
g14
a(lp2539
F13.0
aF-30.5
aaa(lp2540
g11
a(lp2541
F0.0
aF-18.0
aF-13.0
aF-30.0
aaa(lp2542
g14
a(lp2543
F-44.0
aF-12.0
aaa(lp2544
g43
a(lp2545
F-744.0
aaa(lp2546
g11
a(lp2547
F-30.0
aF0.0
aF-43.0
aF12.0
aaa(lp2548
g14
a(lp2549
F-13.0
aF30.0
aaa(lp2550
g11
a(lp2551
F0.0
aF19.0
aF13.0
aF30.5
aaa(lp2552
g14
a(lp2553
F43.0
aF11.5
aaa(lp2554
g43
a(lp2555
F330.0
aaa(lp2556
g34
a(lp2557
F697.0
aaa(lp2558
g43
a(lp2559
F-245.0
aaa(lp2560
g11
a(lp2561
F-30.0
aF0.0
aF-43.5
aF12.0
aaa(lp2562
g14
a(lp2563
F-13.5
aF30.0
aaa(lp2564
g11
a(lp2565
F0.0
aF19.0
aF13.0
aF31.0
aaa(lp2566
g14
a(lp2567
F44.0
aF12.0
aaa(lp2568
g43
a(lp2569
F329.0
aaa(lp2570
g29
a(lp2571
aasba(i__main__
Fonts
p2572
(dp2573
g3
S'i_MalayalamSangamMN.svg'
p2574
sg5
(lp2575
(lp2576
g8
a(lp2577
F298.0
aF1402.0
aaa(lp2578
g34
a(lp2579
F-173.0
aaa(lp2580
g43
a(lp2581
F-148.0
aaa(lp2582
g34
a(lp2583
F173.0
aaa(lp2584
g43
a(lp2585
F148.0
aaa(lp2586
g29
a(lp2587
aa(lp2588
g8
a(lp2589
F298.0
aF1018.0
aaa(lp2590
g34
a(lp2591
F-1018.0
aaa(lp2592
g43
a(lp2593
F-148.0
aaa(lp2594
g34
a(lp2595
F1018.0
aaa(lp2596
g43
a(lp2597
F148.0
aaa(lp2598
g29
a(lp2599
aasba(i__main__
Fonts
p2600
(dp2601
g3
S'i_PTSerif-Caption.svg'
p2602
sg5
(lp2603
(lp2604
g8
a(lp2605
F298.0
aF0.0
aaa(lp2606
g43
a(lp2607
F-253.0
aaa(lp2608
g34
a(lp2609
F50.0
aaa(lp2610
g43
a(lp2611
F74.0
aaa(lp2612
g34
a(lp2613
F425.0
aaa(lp2614
g43
a(lp2615
F-74.0
aaa(lp2616
g34
a(lp2617
F50.0
aaa(lp2618
g43
a(lp2619
F179.0
aaa(lp2620
g34
a(lp2621
F-475.0
aaa(lp2622
g43
a(lp2623
F74.0
aaa(lp2624
g34
a(lp2625
F-50.0
aaa(lp2626
g29
a(lp2627
aa(lp2628
g8
a(lp2629
F97.0
aF687.0
aaa(lp2630
g11
a(lp2631
F0.0
aF29.0
aF20.5
aF46.0
aaa(lp2632
g14
a(lp2633
F52.5
aF17.0
aaa(lp2634
g11
a(lp2635
F34.0
aF0.0
aF53.5
aF-17.0
aaa(lp2636
g14
a(lp2637
F19.5
aF-46.0
aaa(lp2638
g14
a(lp2639
F-19.5
aF-46.0
aaa(lp2640
g14
a(lp2641
F-53.5
aF-17.0
aaa(lp2642
g11
a(lp2643
F-32.0
aF0.0
aF-52.5
aF17.0
aaa(lp2644
g14
a(lp2645
F-20.5
aF46.0
aaa(lp2646
g29
a(lp2647
aasba(i__main__
Fonts
p2648
(dp2649
g3
S'zero_Wingdings2.svg'
p2650
sg5
(lp2651
(lp2652
g8
a(lp2653
F173.0
aF740.0
aaa(lp2654
g11
a(lp2655
F0.0
aF307.0
aF216.5
aF523.5
aaa(lp2656
g14
a(lp2657
F523.5
aF216.5
aaa(lp2658
g14
a(lp2659
F523.5
aF-216.5
aaa(lp2660
g14
a(lp2661
F216.5
aF-523.5
aaa(lp2662
g14
a(lp2663
F-216.5
aF-523.5
aaa(lp2664
g14
a(lp2665
F-523.5
aF-216.5
aaa(lp2666
g14
a(lp2667
F-523.5
aF216.5
aaa(lp2668
g14
a(lp2669
F-216.5
aF523.5
aaa(lp2670
g29
a(lp2671
aa(lp2672
g8
a(lp2673
F272.0
aF740.0
aaa(lp2674
g11
a(lp2675
F0.0
aF-266.0
aF187.5
aF-453.5
aaa(lp2676
g14
a(lp2677
F453.5
aF-187.5
aaa(lp2678
g14
a(lp2679
F454.0
aF187.5
aaa(lp2680
g14
a(lp2681
F188.0
aF453.5
aaa(lp2682
g14
a(lp2683
F-188.0
aF454.0
aaa(lp2684
g14
a(lp2685
F-454.0
aF188.0
aaa(lp2686
g14
a(lp2687
F-453.5
aF-188.0
aaa(lp2688
g14
a(lp2689
F-187.5
aF-454.0
aaa(lp2690
g29
a(lp2691
aa(lp2692
g8
a(lp2693
F1240.0
aF738.0
aaa(lp2694
g11
a(lp2695
F0.0
aF-222.0
aF-89.5
aF-355.5
aaa(lp2696
g14
a(lp2697
F-237.5
aF-133.5
aaa(lp2698
g11
a(lp2699
F-147.0
aF0.0
aF-236.5
aF132.5
aaa(lp2700
g14
a(lp2701
F-89.5
aF351.5
aaa(lp2702
g11
a(lp2703
F0.0
aF222.0
aF89.0
aF355.5
aaa(lp2704
g14
a(lp2705
F237.0
aF133.5
aaa(lp2706
g11
a(lp2707
F147.0
aF0.0
aF237.0
aF-133.0
aaa(lp2708
g14
a(lp2709
F90.0
aF-351.0
aaa(lp2710
g29
a(lp2711
aa(lp2712
g8
a(lp2713
F1108.0
aF736.0
aaa(lp2714
g11
a(lp2715
F0.0
aF212.0
aF-49.0
aF317.5
aaa(lp2716
g14
a(lp2717
F-147.0
aF105.5
aaa(lp2718
g11
a(lp2719
F-96.0
aF0.0
aF-144.5
aF-106.0
aaa(lp2720
g14
a(lp2721
F-48.5
aF-318.0
aaa(lp2722
g14
a(lp2723
F49.0
aF-318.0
aaa(lp2724
g14
a(lp2725
F147.0
aF-106.0
aaa(lp2726
g11
a(lp2727
F97.0
aF0.0
aF145.0
aF106.5
aaa(lp2728
g14
a(lp2729
F48.0
aF318.5
aaa(lp2730
g29
a(lp2731
aasba(i__main__
Fonts
p2732
(dp2733
g3
S'i_AppleMyungjo.svg'
p2734
sg5
(lp2735
(lp2736
g8
a(lp2737
F144.0
aF749.0
aaa(lp2738
g11
a(lp2739
F23.0
aF0.0
aF40.0
aF-17.0
aaa(lp2740
g14
a(lp2741
F17.0
aF-41.0
aaa(lp2742
g11
a(lp2743
F0.0
aF-23.0
aF-16.0
aF-39.0
aaa(lp2744
g14
a(lp2745
F-40.0
aF-16.0
aaa(lp2746
g14
a(lp2747
F-40.0
aF16.0
aaa(lp2748
g14
a(lp2749
F-16.0
aF39.0
aaa(lp2750
g14
a(lp2751
F16.5
aF40.5
aaa(lp2752
g14
a(lp2753
F38.5
aF17.5
aaa(lp2754
g29
a(lp2755
aa(lp2756
g8
a(lp2757
F15.0
aF431.0
aaa(lp2758
g34
a(lp2759
F38.0
aaa(lp2760
g84
a(lp2761
F186.0
aF8.0
aaa(lp2762
g34
a(lp2763
F-405.0
aaa(lp2764
g11
a(lp2765
F0.0
aF-34.0
aF37.0
aF-34.0
aaa(lp2766
g43
a(lp2767
F53.0
aaa(lp2768
g34
a(lp2769
F-38.0
aaa(lp2770
g43
a(lp2771
F-266.0
aaa(lp2772
g34
a(lp2773
F38.0
aaa(lp2774
g43
a(lp2775
F49.0
aaa(lp2776
g11
a(lp2777
F44.0
aF0.0
aF44.0
aF42.0
aaa(lp2778
g34
a(lp2779
F295.0
aaa(lp2780
g11
a(lp2781
F0.0
aF56.0
aF-64.0
aF56.0
aaa(lp2782
g43
a(lp2783
F-39.0
aaa(lp2784
g29
a(lp2785
aasba(i__main__
Fonts
p2786
(dp2787
g3
S'i_BanglaSangamMN.svg'
p2788
sg5
(lp2789
(lp2790
g8
a(lp2791
F298.0
aF1402.0
aaa(lp2792
g34
a(lp2793
F-173.0
aaa(lp2794
g43
a(lp2795
F-148.0
aaa(lp2796
g34
a(lp2797
F173.0
aaa(lp2798
g43
a(lp2799
F148.0
aaa(lp2800
g29
a(lp2801
aa(lp2802
g8
a(lp2803
F298.0
aF1018.0
aaa(lp2804
g34
a(lp2805
F-1018.0
aaa(lp2806
g43
a(lp2807
F-148.0
aaa(lp2808
g34
a(lp2809
F1018.0
aaa(lp2810
g43
a(lp2811
F148.0
aaa(lp2812
g29
a(lp2813
aasba(i__main__
Fonts
p2814
(dp2815
g3
S'i_KannadaSangamMN.svg'
p2816
sg5
(lp2817
(lp2818
g8
a(lp2819
F298.0
aF1402.0
aaa(lp2820
g34
a(lp2821
F-173.0
aaa(lp2822
g43
a(lp2823
F-148.0
aaa(lp2824
g34
a(lp2825
F173.0
aaa(lp2826
g43
a(lp2827
F148.0
aaa(lp2828
g29
a(lp2829
aa(lp2830
g8
a(lp2831
F298.0
aF1018.0
aaa(lp2832
g34
a(lp2833
F-1018.0
aaa(lp2834
g43
a(lp2835
F-148.0
aaa(lp2836
g34
a(lp2837
F1018.0
aaa(lp2838
g43
a(lp2839
F148.0
aaa(lp2840
g29
a(lp2841
aasba(i__main__
Fonts
p2842
(dp2843
g3
S'i_Phosphate-Inline.svg'
p2844
sg5
(lp2845
(lp2846
g8
a(lp2847
F35.0
aF667.0
aaa(lp2848
g43
a(lp2849
F226.0
aaa(lp2850
g34
a(lp2851
F-667.0
aaa(lp2852
g43
a(lp2853
F-226.0
aaa(lp2854
g34
a(lp2855
F667.0
aaa(lp2856
g29
a(lp2857
aa(lp2858
g8
a(lp2859
F161.0
aF80.0
aaa(lp2860
g34
a(lp2861
F507.0
aaa(lp2862
g43
a(lp2863
F-26.0
aaa(lp2864
g34
a(lp2865
F-507.0
aaa(lp2866
g43
a(lp2867
F26.0
aaa(lp2868
g29
a(lp2869
aasba(i__main__
Fonts
p2870
(dp2871
g3
S'i_DINCondensed-Bold.svg'
p2872
sg5
(lp2873
(lp2874
g8
a(lp2875
F42.0
aF0.0
aaa(lp2876
g34
a(lp2877
F507.0
aaa(lp2878
g43
a(lp2879
F102.0
aaa(lp2880
g34
a(lp2881
F-507.0
aaa(lp2882
g43
a(lp2883
F-102.0
aaa(lp2884
g29
a(lp2885
aa(lp2886
g8
a(lp2887
F42.0
aF610.0
aaa(lp2888
g34
a(lp2889
F102.0
aaa(lp2890
g43
a(lp2891
F102.0
aaa(lp2892
g34
a(lp2893
F-102.0
aaa(lp2894
g43
a(lp2895
F-102.0
aaa(lp2896
g29
a(lp2897
aasba(i__main__
Fonts
p2898
(dp2899
g3
S'i_Chalkduster.svg'
p2900
sg5
(lp2901
(lp2902
g8
a(lp2903
F199.0
aF-22.0
aaa(lp2904
g11
a(lp2905
F-2.0
aF8.0
aF-8.0
aF15.0
aaa(lp2906
g14
a(lp2907
F-13.0
aF6.0
aaa(lp2908
g14
a(lp2909
F-11.5
aF-6.0
aaa(lp2910
g14
a(lp2911
F-12.5
aF-6.0
aaa(lp2912
g11
a(lp2913
F-10.0
aF-2.0
aF-15.5
aF2.0
aaa(lp2914
g14
a(lp2915
F-7.5
aF10.5
aaa(lp2916
g14
a(lp2917
F-3.0
aF15.5
aaa(lp2918
g14
a(lp2919
F-2.0
aF17.0
aaa(lp2920
g11
a(lp2921
F-7.0
aF-2.0
aF-14.5
aF-3.0
aaa(lp2922
g14
a(lp2923
F-6.5
aF-12.0
aaa(lp2924
g11
a(lp2925
F-5.0
aF10.0
aF-19.5
aF20.0
aaa(lp2926
g14
a(lp2927
F-26.5
aF9.0
aaa(lp2928
g11
a(lp2929
F0.0
aF5.0
aF-2.5
aF21.5
aaa(lp2930
g14
a(lp2931
F-4.5
aF21.5
aaa(lp2932
g11
a(lp2933
F0.0
aF4.0
aF-1.0
aF11.5
aaa(lp2934
g14
a(lp2935
F-2.0
aF14.0
aaa(lp2936
g14
a(lp2937
F-1.5
aF12.0
aaa(lp2938
g84
a(lp2939
F-0.5
aF5.5
aaa(lp2940
g11
a(lp2941
F0.0
aF8.0
aF-0.5
aF30.0
aaa(lp2942
g14
a(lp2943
F-0.5
aF46.5
aaa(lp2944
g14
a(lp2945
F0.5
aF46.5
aaa(lp2946
g14
a(lp2947
F0.5
aF31.0
aaa(lp2948
g11
a(lp2949
F2.0
aF13.0
aF2.0
aF29.5
aaa(lp2950
g14
a(lp2951
F3.0
aF27.5
aaa(lp2952
g11
a(lp2953
F-1.0
aF2.0
aF3.5
aF6.5
aaa(lp2954
g14
a(lp2955
F4.5
aF5.5
aaa(lp2956
g11
a(lp2957
F1.0
aF11.0
aF0.5
aF19.5
aaa(lp2958
g14
a(lp2959
F0.0
aF16.0
aaa(lp2960
g14
a(lp2961
F4.0
aF15.5
aaa(lp2962
g14
a(lp2963
F12.5
aF17.0
aaa(lp2964
g34
a(lp2965
F1.0
aaa(lp2966
g11
a(lp2967
F0.0
aF1.0
aF0.5
aF1.0
aaa(lp2968
g14
a(lp2969
F0.5
aF1.0
aaa(lp2970
g84
a(lp2971
F4.0
aF-2.0
aaa(lp2972
g11
a(lp2973
F2.0
aF0.0
aF4.5
aF-3.5
aaa(lp2974
g14
a(lp2975
F4.5
aF-2.5
aaa(lp2976
g11
a(lp2977
F2.0
aF-1.0
aF9.0
aF-0.5
aaa(lp2978
g14
a(lp2979
F8.0
aF1.5
aaa(lp2980
g84
a(lp2981
F15.0
aF-29.0
aaa(lp2982
g11
a(lp2983
F3.0
aF-1.0
aF5.0
aF-1.0
aaa(lp2984
g11
a(lp2985
F2.0
aF-1.0
aF3.0
aF-1.0
aaa(lp2986
g14
a(lp2987
F2.0
aF-1.0
aaa(lp2988
g84
a(lp2989
F1.0
aF-1.0
aaa(lp2990
g11
a(lp2991
F0.0
aF-1.0
aF1.0
aF-2.0
aaa(lp2992
g84
a(lp2993
F-1.0
aF-1.0
aaa(lp2994
g11
a(lp2995
F0.0
aF-1.0
aF-0.5
aF-4.5
aaa(lp2996
g14
a(lp2997
F-0.5
aF-5.5
aaa(lp2998
g11
a(lp2999
F6.0
aF3.0
aF14.5
aF3.0
aaa(lp3000
g14
a(lp3001
F16.0
aF-2.5
aaa(lp3002
g14
a(lp3003
F13.5
aF-8.0
aaa(lp3004
g14
a(lp3005
F7.0
aF-14.5
aaa(lp3006
g11
a(lp3007
F1.0
aF-6.0
aF-5.5
aF-11.0
aaa(lp3008
g14
a(lp3009
F-15.0
aF-10.0
aaa(lp3010
g14
a(lp3011
F-16.0
aF-10.0
aaa(lp3012
g14
a(lp3013
F-8.5
aF-9.0
aaa(lp3014
g11
a(lp3015
F-3.0
aF-6.0
aF1.5
aF-10.0
aaa(lp3016
g14
a(lp3017
F12.0
aF-7.5
aaa(lp3018
g14
a(lp3019
F14.0
aF-7.5
aaa(lp3020
g14
a(lp3021
F6.5
aF-10.0
aaa(lp3022
g14
a(lp3023
F-4.5
aF-8.5
aaa(lp3024
g14
a(lp3025
F-9.5
aF-3.5
aaa(lp3026
g14
a(lp3027
F-11.0
aF-2.5
aaa(lp3028
g14
a(lp3029
F-9.0
aF-7.5
aaa(lp3030
g11
a(lp3031
F-2.0
aF-5.0
aF1.5
aF-10.5
aaa(lp3032
g14
a(lp3033
F7.5
aF-10.5
aaa(lp3034
g14
a(lp3035
F7.0
aF-9.5
aaa(lp3036
g14
a(lp3037
F2.0
aF-7.5
aaa(lp3038
g11
a(lp3039
F-2.0
aF-6.0
aF-6.0
aF-7.5
aaa(lp3040
g14
a(lp3041
F-8.0
aF-2.5
aaa(lp3042
g14
a(lp3043
F-7.0
aF-4.0
aaa(lp3044
g14
a(lp3045
F-2.0
aF-11.0
aaa(lp3046
g11
a(lp3047
F0.0
aF-5.0
aF3.5
aF-9.5
aaa(lp3048
g14
a(lp3049
F8.5
aF-4.5
aaa(lp3050
g11
a(lp3051
F7.0
aF1.0
aF5.0
aF4.5
aaa(lp3052
g14
a(lp3053
F2.0
aF11.5
aaa(lp3054
g43
a(lp3055
F2.0
aaa(lp3056
g84
a(lp3057
F2.0
aF1.0
aaa(lp3058
g11
a(lp3059
F1.0
aF0.0
aF2.0
aF-2.0
aaa(lp3060
g14
a(lp3061
F1.0
aF-3.0
aaa(lp3062
g11
a(lp3063
F1.0
aF-12.0
aF-1.5
aF-15.5
aaa(lp3064
g14
a(lp3065
F-6.0
aF-6.0
aaa(lp3066
g14
a(lp3067
F-6.0
aF-6.5
aaa(lp3068
g14
a(lp3069
F-0.5
aF-16.0
aaa(lp3070
g11
a(lp3071
F9.0
aF1.0
aF12.0
aF0.0
aaa(lp3072
g14
a(lp3073
F8.0
aF4.0
aaa(lp3074
g34
a(lp3075
F-1.0
aaa(lp3076
g11
a(lp3077
F2.0
aF-13.0
aF-2.0
aF-24.0
aaa(lp3078
g14
a(lp3079
F-2.0
aF-23.0
aaa(lp3080
g11
a(lp3081
F1.0
aF-10.0
aF4.0
aF-13.5
aaa(lp3082
g14
a(lp3083
F15.0
aF-7.5
aaa(lp3084
g11
a(lp3085
F8.0
aF5.0
aF19.0
aF6.5
aaa(lp3086
g14
a(lp3087
F21.5
aF4.0
aaa(lp3088
g14
a(lp3089
F19.0
aF7.0
aaa(lp3090
g14
a(lp3091
F11.5
aF14.5
aaa(lp3092
g11
a(lp3093
F2.0
aF-1.0
aF5.5
aF-3.0
aaa(lp3094
g14
a(lp3095
F5.5
aF-2.0
aaa(lp3096
g43
a(lp3097
F1.0
aaa(lp3098
g11
a(lp3099
F8.0
aF1.0
aF11.5
aF3.5
aaa(lp3100
g14
a(lp3101
F8.5
aF3.5
aaa(lp3102
g84
a(lp3103
F4.0
aF-1.0
aaa(lp3104
g11
a(lp3105
F1.0
aF0.0
aF2.0
aF-0.5
aaa(lp3106
g14
a(lp3107
F3.0
aF-0.5
aaa(lp3108
g11
a(lp3109
F2.0
aF-1.0
aF4.0
aF-1.0
aaa(lp3110
g11
a(lp3111
F1.0
aF0.0
aF0.5
aF1.5
aaa(lp3112
g14
a(lp3113
F13.5
aF3.5
aaa(lp3114
g11
a(lp3115
F-3.0
aF-1.0
aF-6.0
aF-1.0
aaa(lp3116
g43
a(lp3117
F-6.0
aaa(lp3118
g84
a(lp3119
F1.0
aF1.0
aaa(lp3120
g11
a(lp3121
F2.0
aF0.0
aF4.5
aF-1.5
aaa(lp3122
g14
a(lp3123
F3.5
aF-1.5
aaa(lp3124
g11
a(lp3125
F1.0
aF2.0
aF3.5
aF9.0
aaa(lp3126
g14
a(lp3127
F3.5
aF9.0
aaa(lp3128
g11
a(lp3129
F2.0
aF0.0
aF6.5
aF3.0
aaa(lp3130
g14
a(lp3131
F5.5
aF3.0
aaa(lp3132
g11
a(lp3133
F1.0
aF2.0
aF2.5
aF7.5
aaa(lp3134
g14
a(lp3135
F1.5
aF6.5
aaa(lp3136
g43
a(lp3137
F2.0
aaa(lp3138
g11
a(lp3139
F10.0
aF0.0
aF10.0
aF-7.0
aaa(lp3140
g11
a(lp3141
F0.0
aF-1.0
aF-0.5
aF-1.5
aaa(lp3142
g14
a(lp3143
F-0.5
aF-1.5
aaa(lp3144
g34
a(lp3145
F-3.0
aaa(lp3146
g11
a(lp3147
F-1.0
aF-1.0
aF-4.5
aF-6.5
aaa(lp3148
g14
a(lp3149
F-2.5
aF-7.5
aaa(lp3150
g11
a(lp3151
F0.0
aF-2.0
aF0.5
aF-6.5
aaa(lp3152
g14
a(lp3153
F1.0
aF-10.5
aaa(lp3154
g14
a(lp3155
F1.5
aF-11.0
aaa(lp3156
g14
a(lp3157
F2.0
aF-8.0
aaa(lp3158
g11
a(lp3159
F-2.0
aF-6.0
aF-6.5
aF-7.5
aaa(lp3160
g14
a(lp3161
F-9.0
aF-2.5
aaa(lp3162
g14
a(lp3163
F-7.5
aF-3.0
aaa(lp3164
g14
a(lp3165
F-2.0
aF-8.0
aaa(lp3166
g11
a(lp3167
F1.0
aF-7.0
aF8.0
aF-6.0
aaa(lp3168
g11
a(lp3169
F1.0
aF0.0
aF1.0
aF1.0
aaa(lp3170
g11
a(lp3171
F5.0
aF2.0
aF14.5
aF8.0
aaa(lp3172
g14
a(lp3173
F12.5
aF8.0
aaa(lp3174
g84
a(lp3175
F3.0
aF-5.0
aaa(lp3176
g11
a(lp3177
F-2.0
aF-3.0
aF-8.0
aF-12.5
aaa(lp3178
g14
a(lp3179
F-13.0
aF-20.0
aaa(lp3180
g14
a(lp3181
F-13.5
aF-19.0
aaa(lp3182
g14
a(lp3183
F-9.5
aF-8.5
aaa(lp3184
g11
a(lp3185
F-3.0
aF-1.0
aF-6.0
aF-1.0
aaa(lp3186
g11
a(lp3187
F-6.0
aF0.0
aF-6.0
aF3.0
aaa(lp3188
g11
a(lp3189
F0.0
aF1.0
aF1.0
aF5.0
aaa(lp3190
g14
a(lp3191
F1.0
aF6.0
aaa(lp3192
g34
a(lp3193
F2.0
aaa(lp3194
g11
a(lp3195
F0.0
aF1.0
aF-0.5
aF2.0
aaa(lp3196
g14
a(lp3197
F-0.5
aF3.0
aaa(lp3198
g11
a(lp3199
F0.0
aF5.0
aF-3.5
aF10.0
aaa(lp3200
g14
a(lp3201
F-7.5
aF7.0
aaa(lp3202
g84
a(lp3203
F-12.0
aF-15.0
aaa(lp3204
g84
a(lp3205
F11.0
aF-8.0
aaa(lp3206
g11
a(lp3207
F-1.0
aF-5.0
aF-7.0
aF-7.5
aaa(lp3208
g14
a(lp3209
F-10.0
aF-7.5
aaa(lp3210
g11
a(lp3211
F-5.0
aF-10.0
aF-6.5
aF-16.5
aaa(lp3212
g14
a(lp3213
F-3.0
aF-10.5
aaa(lp3214
g14
a(lp3215
F-6.5
aF-6.5
aaa(lp3216
g14
a(lp3217
F-18.0
aF-3.5
aaa(lp3218
g11
a(lp3219
F-10.0
aF-2.0
aF-17.0
aF-1.5
aaa(lp3220
g14
a(lp3221
F-20.0
aF4.5
aaa(lp3222
g29
a(lp3223
aa(lp3224
g8
a(lp3225
F229.0
aF-9.0
aaa(lp3226
g11
a(lp3227
F0.0
aF2.0
aF-2.5
aF2.0
aaa(lp3228
g14
a(lp3229
F-2.5
aF-2.0
aaa(lp3230
g11
a(lp3231
F5.0
aF-5.0
aF5.0
aF0.0
aaa(lp3232
g29
a(lp3233
aa(lp3234
g8
a(lp3235
F195.0
aF15.0
aaa(lp3236
g11
a(lp3237
F-2.0
aF0.0
aF-2.0
aF-3.0
aaa(lp3238
g14
a(lp3239
F2.0
aF-2.0
aaa(lp3240
g11
a(lp3241
F2.0
aF2.0
aF0.0
aF5.0
aaa(lp3242
g29
a(lp3243
aa(lp3244
g8
a(lp3245
F252.0
aF46.0
aaa(lp3246
g11
a(lp3247
F-9.0
aF-1.0
aF-15.0
aF-5.0
aaa(lp3248
g14
a(lp3249
F-7.0
aF-9.5
aaa(lp3250
g14
a(lp3251
F3.5
aF-10.5
aaa(lp3252
g14
a(lp3253
F15.5
aF-8.0
aaa(lp3254
g11
a(lp3255
F1.0
aF0.0
aF2.5
aF5.5
aaa(lp3256
g14
a(lp3257
F2.0
aF12.0
aaa(lp3258
g14
a(lp3259
F0.0
aF11.5
aaa(lp3260
g14
a(lp3261
F-1.5
aF4.0
aaa(lp3262
g29
a(lp3263
aa(lp3264
g8
a(lp3265
F200.0
aF70.0
aaa(lp3266
g34
a(lp3267
F6.0
aaa(lp3268
g84
a(lp3269
F-5.0
aF-2.0
aaa(lp3270
g29
a(lp3271
aa(lp3272
g8
a(lp3273
F342.0
aF162.0
aaa(lp3274
g11
a(lp3275
F2.0
aF1.0
aF2.5
aF-0.5
aaa(lp3276
g14
a(lp3277
F-0.5
aF-2.5
aaa(lp3278
g11
a(lp3279
F-2.0
aF-2.0
aF-3.0
aF0.5
aaa(lp3280
g14
a(lp3281
F1.0
aF2.5
aaa(lp3282
g29
a(lp3283
aa(lp3284
g8
a(lp3285
F144.0
aF393.0
aaa(lp3286
g11
a(lp3287
F3.0
aF0.0
aF3.5
aF-4.5
aaa(lp3288
g14
a(lp3289
F-2.5
aF-4.5
aaa(lp3290
g11
a(lp3291
F-4.0
aF0.0
aF-4.5
aF4.5
aaa(lp3292
g14
a(lp3293
F3.5
aF4.5
aaa(lp3294
g29
a(lp3295
aa(lp3296
g8
a(lp3297
F110.0
aF492.0
aaa(lp3298
g11
a(lp3299
F-1.0
aF0.0
aF-5.5
aF-2.5
aaa(lp3300
g14
a(lp3301
F-5.5
aF-2.5
aaa(lp3302
g43
a(lp3303
F-1.0
aaa(lp3304
g43
a(lp3305
F-2.0
aaa(lp3306
g11
a(lp3307
F-2.0
aF-1.0
aF-3.5
aF0.0
aaa(lp3308
g14
a(lp3309
F-1.5
aF2.0
aaa(lp3310
g11
a(lp3311
F-11.0
aF18.0
aF-19.5
aF41.0
aaa(lp3312
g14
a(lp3313
F-10.5
aF42.0
aaa(lp3314
g11
a(lp3315
F0.0
aF2.0
aF4.0
aF11.5
aaa(lp3316
g14
a(lp3317
F9.5
aF19.5
aaa(lp3318
g14
a(lp3319
F11.5
aF18.5
aaa(lp3320
g14
a(lp3321
F9.0
aF8.5
aaa(lp3322
g11
a(lp3323
F1.0
aF0.0
aF9.0
aF-1.5
aaa(lp3324
g14
a(lp3325
F17.5
aF-3.5
aaa(lp3326
g14
a(lp3327
F19.0
aF-3.5
aaa(lp3328
g14
a(lp3329
F12.5
aF-1.5
aaa(lp3330
g84
a(lp3331
F4.0
aF-4.0
aaa(lp3332
g84
a(lp3333
F4.0
aF-4.0
aaa(lp3334
g11
a(lp3335
F2.0
aF-3.0
aF4.0
aF-5.0
aaa(lp3336
g11
a(lp3337
F2.0
aF5.0
aF5.5
aF5.5
aaa(lp3338
g14
a(lp3339
F8.5
aF2.5
aaa(lp3340
g11
a(lp3341
F4.0
aF0.0
aF6.0
aF-2.5
aaa(lp3342
g14
a(lp3343
F3.5
aF-6.0
aaa(lp3344
g14
a(lp3345
F3.0
aF-6.0
aaa(lp3346
g14
a(lp3347
F5.5
aF-2.5
aaa(lp3348
g11
a(lp3349
F1.0
aF1.0
aF4.0
aF3.5
aaa(lp3350
g14
a(lp3351
F4.0
aF2.5
aaa(lp3352
g14
a(lp3353
F2.0
aF1.0
aaa(lp3354
g11
a(lp3355
F1.0
aF0.0
aF1.5
aF0.5
aaa(lp3356
g14
a(lp3357
F1.5
aF0.5
aaa(lp3358
g11
a(lp3359
F2.0
aF-14.0
aF-2.0
aF-21.0
aaa(lp3360
g84
a(lp3361
F8.0
aF1.0
aaa(lp3362
g11
a(lp3363
F0.0
aF-2.0
aF-1.0
aF-10.5
aaa(lp3364
g14
a(lp3365
F-1.0
aF-11.5
aaa(lp3366
g11
a(lp3367
F1.0
aF-3.0
aF5.0
aF-10.0
aaa(lp3368
g14
a(lp3369
F6.0
aF-9.0
aaa(lp3370
g11
a(lp3371
F-1.0
aF-2.0
aF-3.0
aF-9.0
aaa(lp3372
g14
a(lp3373
F-5.0
aF-14.5
aaa(lp3374
g14
a(lp3375
F-7.0
aF-14.0
aaa(lp3376
g14
a(lp3377
F-9.0
aF-6.5
aaa(lp3378
g11
a(lp3379
F-1.0
aF0.0
aF-4.5
aF0.5
aaa(lp3380
g14
a(lp3381
F-5.5
aF0.5
aaa(lp3382
g14
a(lp3383
F-8.0
aF2.0
aaa(lp3384
g11
a(lp3385
F-3.0
aF1.0
aF-5.0
aF1.0
aaa(lp3386
g11
a(lp3387
F-7.0
aF-3.0
aF-11.5
aF-6.5
aaa(lp3388
g84
a(lp3389
F-9.0
aF-7.0
aaa(lp3390
g14
a(lp3391
F-10.0
aF-6.0
aaa(lp3392
g14
a(lp3393
F-14.5
aF-3.5
aaa(lp3394
g11
a(lp3395
F-9.0
aF-2.0
aF-12.0
aF4.5
aaa(lp3396
g14
a(lp3397
F-11.0
aF5.5
aaa(lp3398
g29
a(lp3399
aa(lp3400
g8
a(lp3401
F194.0
aF575.0
aaa(lp3402
g11
a(lp3403
F2.0
aF2.0
aF-1.0
aF2.0
aaa(lp3404
g14
a(lp3405
F-2.0
aF-2.0
aaa(lp3406
g11
a(lp3407
F0.0
aF-3.0
aF1.5
aF-3.0
aaa(lp3408
g14
a(lp3409
F1.5
aF3.0
aaa(lp3410
g29
a(lp3411
aa(lp3412
g8
a(lp3413
F98.0
aF598.0
aaa(lp3414
g11
a(lp3415
F-2.0
aF-1.0
aF-1.5
aF-5.0
aaa(lp3416
g14
a(lp3417
F2.5
aF-3.0
aaa(lp3418
g11
a(lp3419
F3.0
aF0.0
aF2.5
aF4.0
aaa(lp3420
g14
a(lp3421
F-3.5
aF4.0
aaa(lp3422
g29
a(lp3423
aasba(i__main__
Fonts
p3424
(dp3425
g3
S'i_ArialUnicodeMS.svg'
p3426
sg5
(lp3427
(lp3428
g8
a(lp3429
F317.0
aF0.0
aaa(lp3430
g43
a(lp3431
F-180.0
aaa(lp3432
g34
a(lp3433
F1061.0
aaa(lp3434
g43
a(lp3435
F180.0
aaa(lp3436
g34
a(lp3437
F-1061.0
aaa(lp3438
g29
a(lp3439
aa(lp3440
g8
a(lp3441
F317.0
aF1262.0
aaa(lp3442
g43
a(lp3443
F-180.0
aaa(lp3444
g34
a(lp3445
F204.0
aaa(lp3446
g43
a(lp3447
F180.0
aaa(lp3448
g34
a(lp3449
F-204.0
aaa(lp3450
g29
a(lp3451
aasba(i__main__
Fonts
p3452
(dp3453
g3
S'i_MalayalamMN.svg'
p3454
sg5
(lp3455
(lp3456
g8
a(lp3457
F196.0
aF985.0
aaa(lp3458
g84
a(lp3459
F143.0
aF58.0
aaa(lp3460
g43
a(lp3461
F59.0
aaa(lp3462
g34
a(lp3463
F-1043.0
aaa(lp3464
g43
a(lp3465
F-202.0
aaa(lp3466
g34
a(lp3467
F985.0
aaa(lp3468
g29
a(lp3469
aa(lp3470
g8
a(lp3471
F180.0
aF1416.0
aaa(lp3472
g11
a(lp3473
F0.0
aF24.0
aF9.0
aF45.0
aaa(lp3474
g14
a(lp3475
F25.0
aF37.0
aaa(lp3476
g14
a(lp3477
F37.0
aF25.0
aaa(lp3478
g14
a(lp3479
F45.0
aF9.0
aaa(lp3480
g14
a(lp3481
F45.0
aF-9.0
aaa(lp3482
g14
a(lp3483
F37.0
aF-25.0
aaa(lp3484
g14
a(lp3485
F25.0
aF-37.0
aaa(lp3486
g14
a(lp3487
F9.0
aF-45.0
aaa(lp3488
g14
a(lp3489
F-9.0
aF-45.0
aaa(lp3490
g14
a(lp3491
F-25.0
aF-37.0
aaa(lp3492
g14
a(lp3493
F-37.0
aF-25.0
aaa(lp3494
g14
a(lp3495
F-45.0
aF-9.0
aaa(lp3496
g14
a(lp3497
F-45.0
aF9.0
aaa(lp3498
g14
a(lp3499
F-37.0
aF25.0
aaa(lp3500
g14
a(lp3501
F-25.0
aF37.0
aaa(lp3502
g14
a(lp3503
F-9.0
aF45.0
aaa(lp3504
g29
a(lp3505
aasba(i__main__
Fonts
p3506
(dp3507
g3
S'i_SinhalaSangamMN.svg'
p3508
sg5
(lp3509
(lp3510
g8
a(lp3511
F211.0
aF1140.0
aaa(lp3512
g34
a(lp3513
F-141.0
aaa(lp3514
g43
a(lp3515
F-119.0
aaa(lp3516
g34
a(lp3517
F141.0
aaa(lp3518
g43
a(lp3519
F119.0
aaa(lp3520
g29
a(lp3521
aa(lp3522
g8
a(lp3523
F211.0
aF814.0
aaa(lp3524
g34
a(lp3525
F-814.0
aaa(lp3526
g43
a(lp3527
F-119.0
aaa(lp3528
g34
a(lp3529
F814.0
aaa(lp3530
g43
a(lp3531
F119.0
aaa(lp3532
g29
a(lp3533
aasba(i__main__
Fonts
p3534
(dp3535
g3
S'i_Zapfino.svg'
p3536
sg5
(lp3537
(lp3538
g8
a(lp3539
F236.0
aF354.0
aaa(lp3540
g11
a(lp3541
F0.0
aF-12.0
aF-10.5
aF-24.0
aaa(lp3542
g14
a(lp3543
F-23.5
aF-12.0
aaa(lp3544
g11
a(lp3545
F-12.0
aF0.0
aF-12.0
aF12.0
aaa(lp3546
g11
a(lp3547
F0.0
aF13.0
aF9.5
aF25.0
aaa(lp3548
g14
a(lp3549
F23.5
aF12.0
aaa(lp3550
g11
a(lp3551
F13.0
aF0.0
aF13.0
aF-13.0
aaa(lp3552
g29
a(lp3553
aa(lp3554
g8
a(lp3555
F281.0
aF131.0
aaa(lp3556
g11
a(lp3557
F-24.0
aF-31.0
aF-55.0
aF-59.0
aaa(lp3558
g14
a(lp3559
F-57.0
aF-45.0
aaa(lp3560
g11
a(lp3561
F-20.0
aF-13.0
aF-41.0
aF-20.0
aaa(lp3562
g14
a(lp3563
F-38.0
aF-7.0
aaa(lp3564
g11
a(lp3565
F-6.0
aF0.0
aF-14.0
aF1.0
aaa(lp3566
g14
a(lp3567
F-14.5
aF5.0
aaa(lp3568
g14
a(lp3569
F-11.0
aF10.5
aaa(lp3570
g14
a(lp3571
F-4.5
aF17.5
aaa(lp3572
g11
a(lp3573
F0.0
aF13.0
aF10.0
aF35.5
aaa(lp3574
g14
a(lp3575
F23.5
aF46.5
aaa(lp3576
g14
a(lp3577
F27.0
aF46.0
aaa(lp3578
g14
a(lp3579
F21.5
aF33.0
aaa(lp3580
g11
a(lp3581
F5.0
aF8.0
aF17.5
aF13.5
aaa(lp3582
g14
a(lp3583
F16.5
aF5.5
aaa(lp3584
g11
a(lp3585
F5.0
aF0.0
aF5.0
aF-3.0
aaa(lp3586
g11
a(lp3587
F0.0
aF-2.0
aF-1.5
aF-6.0
aaa(lp3588
g14
a(lp3589
F-3.5
aF-6.0
aaa(lp3590
g11
a(lp3591
F-13.0
aF-20.0
aF-26.5
aF-44.0
aaa(lp3592
g14
a(lp3593
F-24.5
aF-46.5
aaa(lp3594
g14
a(lp3595
F-17.5
aF-41.5
aaa(lp3596
g14
a(lp3597
F-6.5
aF-30.0
aaa(lp3598
g11
a(lp3599
F0.0
aF-12.0
aF6.5
aF-17.5
aaa(lp3600
g14
a(lp3601
F17.5
aF-5.5
aaa(lp3602
g11
a(lp3603
F20.0
aF0.0
aF44.0
aF13.5
aaa(lp3604
g14
a(lp3605
F47.5
aF32.5
aaa(lp3606
g14
a(lp3607
F43.5
aF40.0
aaa(lp3608
g14
a(lp3609
F31.0
aF36.0
aaa(lp3610
g11
a(lp3611
F5.0
aF5.0
aF5.5
aF2.5
aaa(lp3612
g14
a(lp3613
F-1.5
aF-7.5
aaa(lp3614
g29
a(lp3615
aasba(i__main__
Fonts
p3616
(dp3617
g3
S'i_Georgia.svg'
p3618
sg5
(lp3619
(lp3620
g8
a(lp3621
F551.0
aF0.0
aaa(lp3622
g43
a(lp3623
F-477.0
aaa(lp3624
g34
a(lp3625
F66.0
aaa(lp3626
g11
a(lp3627
F23.0
aF2.0
aF47.5
aF4.0
aaa(lp3628
g14
a(lp3629
F42.5
aF8.0
aaa(lp3630
g11
a(lp3631
F28.0
aF9.0
aF41.5
aF31.5
aaa(lp3632
g14
a(lp3633
F13.5
aF58.5
aaa(lp3634
g34
a(lp3635
F609.0
aaa(lp3636
g11
a(lp3637
F0.0
aF32.0
aF-14.5
aF58.5
aaa(lp3638
g14
a(lp3639
F-40.5
aF44.5
aaa(lp3640
g11
a(lp3641
F-19.0
aF12.0
aF-55.0
aF20.5
aaa(lp3642
g14
a(lp3643
F-66.0
aF10.5
aaa(lp3644
g34
a(lp3645
F65.0
aaa(lp3646
g84
a(lp3647
F348.0
aF22.0
aaa(lp3648
g84
a(lp3649
F14.0
aF-14.0
aaa(lp3650
g34
a(lp3651
F-804.0
aaa(lp3652
g11
a(lp3653
F0.0
aF-35.0
aF13.5
aF-58.0
aaa(lp3654
g14
a(lp3655
F42.5
aF-34.0
aaa(lp3656
g11
a(lp3657
F22.0
aF-9.0
aF43.0
aF-14.5
aaa(lp3658
g14
a(lp3659
F47.0
aF-7.5
aaa(lp3660
g34
a(lp3661
F-66.0
aaa(lp3662
g29
a(lp3663
aa(lp3664
g8
a(lp3665
F425.0
aF1387.0
aaa(lp3666
g11
a(lp3667
F0.0
aF-57.0
aF-37.5
aF-99.5
aaa(lp3668
g14
a(lp3669
F-92.5
aF-42.5
aaa(lp3670
g11
a(lp3671
F-51.0
aF0.0
aF-88.5
aF40.5
aaa(lp3672
g14
a(lp3673
F-37.5
aF92.5
aaa(lp3674
g11
a(lp3675
F0.0
aF55.0
aF37.5
aF96.0
aaa(lp3676
g14
a(lp3677
F88.5
aF41.0
aaa(lp3678
g11
a(lp3679
F57.0
aF0.0
aF93.5
aF-38.5
aaa(lp3680
g14
a(lp3681
F36.5
aF-89.5
aaa(lp3682
g29
a(lp3683
aasba(i__main__
Fonts
p3684
(dp3685
g3
S'i_ArialNarrow.svg'
p3686
sg5
(lp3687
(lp3688
g8
a(lp3689
F108.0
aF1259.0
aaa(lp3690
g34
a(lp3691
F207.0
aaa(lp3692
g43
a(lp3693
F147.0
aaa(lp3694
g34
a(lp3695
F-207.0
aaa(lp3696
g43
a(lp3697
F-147.0
aaa(lp3698
g29
a(lp3699
aa(lp3700
g8
a(lp3701
F108.0
aF0.0
aaa(lp3702
g34
a(lp3703
F1062.0
aaa(lp3704
g43
a(lp3705
F147.0
aaa(lp3706
g34
a(lp3707
F-1062.0
aaa(lp3708
g43
a(lp3709
F-147.0
aaa(lp3710
g29
a(lp3711
aasba(i__main__
Fonts
p3712
(dp3713
g3
S'i_Impact.svg'
p3714
sg5
(lp3715
(lp3716
g8
a(lp3717
F488.0
aF1619.0
aaa(lp3718
g34
a(lp3719
F-211.0
aaa(lp3720
g43
a(lp3721
F-416.0
aaa(lp3722
g34
a(lp3723
F211.0
aaa(lp3724
g43
a(lp3725
F416.0
aaa(lp3726
g29
a(lp3727
aa(lp3728
g8
a(lp3729
F488.0
aF1327.0
aaa(lp3730
g34
a(lp3731
F-1327.0
aaa(lp3732
g43
a(lp3733
F-416.0
aaa(lp3734
g34
a(lp3735
F1327.0
aaa(lp3736
g43
a(lp3737
F416.0
aaa(lp3738
g29
a(lp3739
aasba(i__main__
Fonts
p3740
(dp3741
g3
S'i_Futura-Medium.svg'
p3742
sg5
(lp3743
(lp3744
g8
a(lp3745
F367.0
aF974.0
aaa(lp3746
g34
a(lp3747
F-974.0
aaa(lp3748
g43
a(lp3749
F-225.0
aaa(lp3750
g34
a(lp3751
F974.0
aaa(lp3752
g43
a(lp3753
F225.0
aaa(lp3754
g29
a(lp3755
aa(lp3756
g8
a(lp3757
F108.0
aF1379.0
aaa(lp3758
g11
a(lp3759
F0.0
aF59.0
aF43.0
aF102.0
aaa(lp3760
g14
a(lp3761
F103.0
aF43.0
aaa(lp3762
g11
a(lp3763
F61.0
aF0.0
aF104.0
aF-43.0
aaa(lp3764
g11
a(lp3765
F43.0
aF-42.0
aF43.0
aF-103.0
aaa(lp3766
g14
a(lp3767
F-43.0
aF-104.0
aaa(lp3768
g11
a(lp3769
F-42.0
aF-43.0
aF-103.0
aF-43.0
aaa(lp3770
g14
a(lp3771
F-104.0
aF43.0
aaa(lp3772
g14
a(lp3773
F-43.0
aF105.0
aaa(lp3774
g29
a(lp3775
aasba(i__main__
Fonts
p3776
(dp3777
g3
S'i_STIXGeneral-Bold.svg'
p3778
sg5
(lp3779
(lp3780
g8
a(lp3781
F215.0
aF613.0
aaa(lp3782
g2327
a(lp3783
F0.0
aF-44.0
aF-34.0
aF-77.0
aF-78.0
aF-77.0
aaa(lp3784
g2330
a(lp3785
F-77.0
aF33.0
aF-77.0
aF77.0
aaa(lp3786
g2330
a(lp3787
F34.0
aF78.0
aF79.0
aF78.0
aaa(lp3788
g2327
a(lp3789
F42.0
aF0.0
aF76.0
aF-35.0
aF76.0
aF-78.0
aaa(lp3790
g29
a(lp3791
aa(lp3792
g8
a(lp3793
F256.0
aF0.0
aaa(lp3794
g43
a(lp3795
F-240.0
aaa(lp3796
g34
a(lp3797
F24.0
aaa(lp3798
g2327
a(lp3799
F46.0
aF11.0
aF53.0
aF18.0
aF53.0
aF64.0
aaa(lp3800
g34
a(lp3801
F285.0
aaa(lp3802
g2327
a(lp3803
F0.0
aF45.0
aF-10.0
aF55.0
aF-54.0
aF64.0
aaa(lp3804
g34
a(lp3805
F24.0
aaa(lp3806
g43
a(lp3807
F193.0
aaa(lp3808
g34
a(lp3809
F-376.0
aaa(lp3810
g2327
a(lp3811
F0.0
aF-43.0
aF13.0
aF-56.0
aF48.0
aF-61.0
aaa(lp3812
g34
a(lp3813
F-24.0
aaa(lp3814
g29
a(lp3815
aasba(i__main__
Fonts
p3816
(dp3817
g3
S'i_Tahoma-Bold.svg'
p3818
sg5
(lp3819
(lp3820
g8
a(lp3821
F484.0
aF0.0
aaa(lp3822
g43
a(lp3823
F-350.0
aaa(lp3824
g34
a(lp3825
F1123.0
aaa(lp3826
g43
a(lp3827
F350.0
aaa(lp3828
g34
a(lp3829
F-1123.0
aaa(lp3830
g29
a(lp3831
aa(lp3832
g8
a(lp3833
F494.0
aF1283.0
aaa(lp3834
g43
a(lp3835
F-370.0
aaa(lp3836
g34
a(lp3837
F273.0
aaa(lp3838
g43
a(lp3839
F370.0
aaa(lp3840
g34
a(lp3841
F-273.0
aaa(lp3842
g29
a(lp3843
aasba(i__main__
Fonts
p3844
(dp3845
g3
S'i_MicrosoftSansSerif.svg'
p3846
sg5
(lp3847
(lp3848
g8
a(lp3849
F328.0
aF0.0
aaa(lp3850
g43
a(lp3851
F-189.0
aaa(lp3852
g34
a(lp3853
F1061.0
aaa(lp3854
g43
a(lp3855
F189.0
aaa(lp3856
g34
a(lp3857
F-1061.0
aaa(lp3858
g29
a(lp3859
aa(lp3860
g8
a(lp3861
F328.0
aF1262.0
aaa(lp3862
g43
a(lp3863
F-189.0
aaa(lp3864
g34
a(lp3865
F204.0
aaa(lp3866
g43
a(lp3867
F189.0
aaa(lp3868
g34
a(lp3869
F-204.0
aaa(lp3870
g29
a(lp3871
aasba(i__main__
Fonts
p3872
(dp3873
g3
S'i_BodoniSvtyTwoITCTT-Book.svg'
p3874
sg5
(lp3875
(lp3876
g8
a(lp3877
F167.0
aF629.0
aaa(lp3878
g11
a(lp3879
F0.0
aF-45.0
aF-45.0
aF-45.0
aaa(lp3880
g11
a(lp3881
F-19.0
aF0.0
aF-32.0
aF12.5
aaa(lp3882
g14
a(lp3883
F-13.0
aF30.5
aaa(lp3884
g11
a(lp3885
F0.0
aF47.0
aF45.0
aF47.0
aaa(lp3886
g14
a(lp3887
F45.0
aF-45.0
aaa(lp3888
g29
a(lp3889
aa(lp3890
g8
a(lp3891
F242.0
aF6.0
aaa(lp3892
g11
a(lp3893
F0.0
aF-9.0
aF-17.0
aF-9.0
aaa(lp3894
g11
a(lp3895
F1.0
aF0.0
aF-24.0
aF2.0
aaa(lp3896
g11
a(lp3897
F-30.0
aF2.0
aF-50.0
aF2.0
aaa(lp3898
g84
a(lp3899
F-104.0
aF-2.0
aaa(lp3900
g11
a(lp3901
F-5.0
aF-1.0
aF-12.0
aF-1.0
aaa(lp3902
g11
a(lp3903
F-11.0
aF0.0
aF-11.0
aF7.0
aaa(lp3904
g11
a(lp3905
F0.0
aF10.0
aF20.0
aF10.0
aaa(lp3906
g11
a(lp3907
F38.0
aF1.0
aF41.5
aF5.5
aaa(lp3908
g14
a(lp3909
F3.5
aF41.5
aaa(lp3910
g84
a(lp3911
F-1.0
aF303.0
aaa(lp3912
g11
a(lp3913
F-1.0
aF25.0
aF-2.5
aF29.5
aaa(lp3914
g14
a(lp3915
F-12.5
aF4.5
aaa(lp3916
g84
a(lp3917
F-29.0
aF-1.0
aaa(lp3918
g11
a(lp3919
F-4.0
aF-1.0
aF-10.0
aF-1.0
aaa(lp3920
g11
a(lp3921
F-11.0
aF0.0
aF-11.0
aF8.0
aaa(lp3922
g11
a(lp3923
F0.0
aF7.0
aF17.0
aF8.0
aaa(lp3924
g11
a(lp3925
F67.0
aF3.0
aF115.0
aF32.0
aaa(lp3926
g84
a(lp3927
F10.0
aF6.0
aaa(lp3928
g11
a(lp3929
F8.0
aF-15.0
aF8.0
aF-55.0
aaa(lp3930
g11
a(lp3931
F0.0
aF2.0
aF0.0
aF-10.0
aaa(lp3932
g11
a(lp3933
F-1.0
aF-12.0
aF-1.0
aF-39.0
aaa(lp3934
g34
a(lp3935
F-273.0
aaa(lp3936
g11
a(lp3937
F0.0
aF-40.0
aF1.5
aF-47.0
aaa(lp3938
g14
a(lp3939
F10.5
aF-9.0
aaa(lp3940
g11
a(lp3941
F15.0
aF-4.0
aF44.0
aF-4.0
aaa(lp3942
g11
a(lp3943
F14.0
aF0.0
aF14.0
aF-8.0
aaa(lp3944
g29
a(lp3945
aasba(i__main__
Fonts
p3946
(dp3947
g3
S'i_ArialNarrow-BoldItalic.svg'
p3948
sg5
(lp3949
(lp3950
g8
a(lp3951
F319.0
aF1466.0
aaa(lp3952
g43
a(lp3953
F236.0
aaa(lp3954
g84
a(lp3955
F-45.0
aF-260.0
aaa(lp3956
g43
a(lp3957
F-235.0
aaa(lp3958
g29
a(lp3959
aa(lp3960
g8
a(lp3961
F250.0
aF1062.0
aaa(lp3962
g43
a(lp3963
F235.0
aaa(lp3964
g84
a(lp3965
F-182.0
aF-1062.0
aaa(lp3966
g43
a(lp3967
F-235.0
aaa(lp3968
g29
a(lp3969
aasba(i__main__
Fonts
p3970
(dp3971
g3
S'i_Skia-Regular.svg'
p3972
sg5
(lp3973
(lp3974
g8
a(lp3975
F361.0
aF1206.0
aaa(lp3976
g43
a(lp3977
F-176.0
aaa(lp3978
g34
a(lp3979
F172.0
aaa(lp3980
g43
a(lp3981
F176.0
aaa(lp3982
g34
a(lp3983
F-172.0
aaa(lp3984
g29
a(lp3985
aa(lp3986
g8
a(lp3987
F352.0
aF0.0
aaa(lp3988
g43
a(lp3989
F-158.0
aaa(lp3990
g11
a(lp3991
F1.0
aF16.0
aF2.5
aF197.0
aaa(lp3992
g14
a(lp3993
F1.5
aF299.0
aaa(lp3994
g11
a(lp3995
F0.0
aF103.0
aF-0.5
aF226.5
aaa(lp3996
g14
a(lp3997
F-3.5
aF289.5
aaa(lp3998
g43
a(lp3999
F158.0
aaa(lp4000
g11
a(lp4001
F-2.0
aF-144.0
aF-3.5
aF-269.5
aaa(lp4002
g14
a(lp4003
F-1.5
aF-223.5
aaa(lp4004
g11
a(lp4005
F0.0
aF-233.0
aF2.5
aF-374.0
aaa(lp4006
g14
a(lp4007
F2.5
aF-145.0
aaa(lp4008
g29
a(lp4009
aasba(i__main__
Fonts
p4010
(dp4011
g3
S'i_Verdana-Italic.svg'
p4012
sg5
(lp4013
(lp4014
g8
a(lp4015
F604.0
aF1499.0
aaa(lp4016
g84
a(lp4017
F-45.0
aF-195.0
aaa(lp4018
g43
a(lp4019
F-212.0
aaa(lp4020
g84
a(lp4021
F45.0
aF195.0
aaa(lp4022
g43
a(lp4023
F212.0
aaa(lp4024
g29
a(lp4025
aa(lp4026
g8
a(lp4027
F504.0
aF1117.0
aaa(lp4028
g84
a(lp4029
F-258.0
aF-1117.0
aaa(lp4030
g43
a(lp4031
F-188.0
aaa(lp4032
g84
a(lp4033
F258.0
aF1117.0
aaa(lp4034
g43
a(lp4035
F188.0
aaa(lp4036
g29
a(lp4037
aasba(i__main__
Fonts
p4038
(dp4039
g3
S'i_CourierNewPS-BoldMT.svg'
p4040
sg5
(lp4041
(lp4042
g8
a(lp4043
F688.0
aF1297.0
aaa(lp4044
g34
a(lp4045
F-217.0
aaa(lp4046
g43
a(lp4047
F-244.0
aaa(lp4048
g34
a(lp4049
F217.0
aaa(lp4050
g43
a(lp4051
F244.0
aaa(lp4052
g29
a(lp4053
aa(lp4054
g8
a(lp4055
F716.0
aF908.0
aaa(lp4056
g34
a(lp4057
F-703.0
aaa(lp4058
g43
a(lp4059
F246.0
aaa(lp4060
g11
a(lp4061
F74.0
aF0.0
aF105.5
aF-28.5
aaa(lp4062
g14
a(lp4063
F31.5
aF-74.5
aaa(lp4064
g11
a(lp4065
F0.0
aF-45.0
aF-31.5
aF-73.5
aaa(lp4066
g14
a(lp4067
F-105.5
aF-28.5
aaa(lp4068
g43
a(lp4069
F-697.0
aaa(lp4070
g11
a(lp4071
F-74.0
aF0.0
aF-105.5
aF28.5
aaa(lp4072
g14
a(lp4073
F-31.5
aF74.5
aaa(lp4074
g11
a(lp4075
F0.0
aF45.0
aF31.5
aF73.5
aaa(lp4076
g14
a(lp4077
F105.5
aF28.5
aaa(lp4078
g43
a(lp4079
F246.0
aaa(lp4080
g34
a(lp4081
F498.0
aaa(lp4082
g43
a(lp4083
F-165.0
aaa(lp4084
g11
a(lp4085
F-73.0
aF0.0
aF-105.0
aF28.5
aaa(lp4086
g14
a(lp4087
F-32.0
aF74.5
aaa(lp4088
g11
a(lp4089
F0.0
aF45.0
aF31.5
aF73.5
aaa(lp4090
g14
a(lp4091
F105.5
aF28.5
aaa(lp4092
g43
a(lp4093
F370.0
aaa(lp4094
g29
a(lp4095
aasba(i__main__
Fonts
p4096
(dp4097
g3
S'i_TimesNewRomanPS-BoldMT.svg'
p4098
sg5
(lp4099
(lp4100
g8
a(lp4101
F294.0
aF1388.0
aaa(lp4102
g11
a(lp4103
F65.0
aF0.0
aF110.0
aF-45.5
aaa(lp4104
g14
a(lp4105
F45.0
aF-109.5
aaa(lp4106
g14
a(lp4107
F-45.5
aF-109.0
aaa(lp4108
g14
a(lp4109
F-109.5
aF-45.0
aaa(lp4110
g14
a(lp4111
F-109.0
aF45.0
aaa(lp4112
g14
a(lp4113
F-45.0
aF109.0
aaa(lp4114
g14
a(lp4115
F45.0
aF109.5
aaa(lp4116
g14
a(lp4117
F109.0
aF45.5
aaa(lp4118
g29
a(lp4119
aa(lp4120
g8
a(lp4121
F434.0
aF935.0
aaa(lp4122
g34
a(lp4123
F-741.0
aaa(lp4124
g11
a(lp4125
F0.0
aF-99.0
aF23.0
aF-126.5
aaa(lp4126
g14
a(lp4127
F90.0
aF-31.5
aaa(lp4128
g34
a(lp4129
F-36.0
aaa(lp4130
g43
a(lp4131
F-505.0
aaa(lp4132
g34
a(lp4133
F36.0
aaa(lp4134
g11
a(lp4135
F62.0
aF2.0
aF92.0
aF36.0
aaa(lp4136
g11
a(lp4137
F20.0
aF23.0
aF20.0
aF122.0
aaa(lp4138
g34
a(lp4139
F546.0
aaa(lp4140
g11
a(lp4141
F0.0
aF99.0
aF-23.0
aF126.5
aaa(lp4142
g14
a(lp4143
F-89.0
aF31.5
aaa(lp4144
g34
a(lp4145
F37.0
aaa(lp4146
g43
a(lp4147
F392.0
aaa(lp4148
g29
a(lp4149
aasba(i__main__
Fonts
p4150
(dp4151
g3
S'i_Verdana.svg'
p4152
sg5
(lp4153
(lp4154
g8
a(lp4155
F387.0
aF1304.0
aaa(lp4156
g43
a(lp4157
F-212.0
aaa(lp4158
g34
a(lp4159
F195.0
aaa(lp4160
g43
a(lp4161
F212.0
aaa(lp4162
g34
a(lp4163
F-195.0
aaa(lp4164
g29
a(lp4165
aa(lp4166
g8
a(lp4167
F375.0
aF0.0
aaa(lp4168
g43
a(lp4169
F-188.0
aaa(lp4170
g34
a(lp4171
F1117.0
aaa(lp4172
g43
a(lp4173
F188.0
aaa(lp4174
g34
a(lp4175
F-1117.0
aaa(lp4176
g29
a(lp4177
aasba(i__main__
Fonts
p4178
(dp4179
g3
S'i_TeluguSangamMN.svg'
p4180
sg5
(lp4181
(lp4182
g8
a(lp4183
F298.0
aF1402.0
aaa(lp4184
g34
a(lp4185
F-173.0
aaa(lp4186
g43
a(lp4187
F-148.0
aaa(lp4188
g34
a(lp4189
F173.0
aaa(lp4190
g43
a(lp4191
F148.0
aaa(lp4192
g29
a(lp4193
aa(lp4194
g8
a(lp4195
F298.0
aF1018.0
aaa(lp4196
g34
a(lp4197
F-1018.0
aaa(lp4198
g43
a(lp4199
F-148.0
aaa(lp4200
g34
a(lp4201
F1018.0
aaa(lp4202
g43
a(lp4203
F148.0
aaa(lp4204
g29
a(lp4205
aasba(i__main__
Fonts
p4206
(dp4207
g3
S'i_STIXGeneral-Regular.svg'
p4208
sg5
(lp4209
(lp4210
g8
a(lp4211
F180.0
aF632.0
aaa(lp4212
g2327
a(lp4213
F0.0
aF-29.0
aF-22.0
aF-51.0
aF-52.0
aF-51.0
aaa(lp4214
g2327
a(lp4215
F-28.0
aF0.0
aF-50.0
aF22.0
aF-50.0
aF51.0
aaa(lp4216
g2327
a(lp4217
F0.0
aF28.0
aF23.0
aF51.0
aF51.0
aF51.0
aaa(lp4218
g2327
a(lp4219
F29.0
aF0.0
aF51.0
aF-23.0
aF51.0
aF-51.0
aaa(lp4220
g29
a(lp4221
aa(lp4222
g8
a(lp4223
F253.0
aF0.0
aaa(lp4224
g43
a(lp4225
F-237.0
aaa(lp4226
g34
a(lp4227
F15.0
aaa(lp4228
g2327
a(lp4229
F69.0
aF4.0
aF79.0
aF13.0
aF79.0
aF89.0
aaa(lp4230
g34
a(lp4231
F227.0
aaa(lp4232
g2327
a(lp4233
F0.0
aF47.0
aF-8.0
aF63.0
aF-33.0
aF63.0
aaa(lp4234
g2327
a(lp4235
F-9.0
aF0.0
aF-24.0
aF0.0
aF-42.0
aF-5.0
aaa(lp4236
g34
a(lp4237
F16.0
aaa(lp4238
g84
a(lp4239
F155.0
aF55.0
aaa(lp4240
g84
a(lp4241
F4.0
aF-4.0
aaa(lp4242
g34
a(lp4243
F-351.0
aaa(lp4244
g2327
a(lp4245
F0.0
aF-74.0
aF8.0
aF-85.0
aF74.0
aF-90.0
aaa(lp4246
g34
a(lp4247
F-15.0
aaa(lp4248
g29
a(lp4249
aasba(i__main__
Fonts
p4250
(dp4251
g3
S'i_MyanmarSangamMN.svg'
p4252
sg5
(lp4253
(lp4254
g8
a(lp4255
F153.0
aF696.0
aaa(lp4256
g34
a(lp4257
F-86.0
aaa(lp4258
g43
a(lp4259
F-73.0
aaa(lp4260
g34
a(lp4261
F86.0
aaa(lp4262
g43
a(lp4263
F73.0
aaa(lp4264
g29
a(lp4265
aa(lp4266
g8
a(lp4267
F153.0
aF497.0
aaa(lp4268
g34
a(lp4269
F-497.0
aaa(lp4270
g43
a(lp4271
F-73.0
aaa(lp4272
g34
a(lp4273
F497.0
aaa(lp4274
g43
a(lp4275
F73.0
aaa(lp4276
g29
a(lp4277
aasba(i__main__
Fonts
p4278
(dp4279
g3
S'i_EuphemiaUCAS.svg'
p4280
sg5
(lp4281
(lp4282
g8
a(lp4283
F168.0
aF1080.0
aaa(lp4284
g43
a(lp4285
F158.0
aaa(lp4286
g34
a(lp4287
F-1080.0
aaa(lp4288
g43
a(lp4289
F-158.0
aaa(lp4290
g34
a(lp4291
F1080.0
aaa(lp4292
g29
a(lp4293
aa(lp4294
g8
a(lp4295
F152.0
aF1430.0
aaa(lp4296
g11
a(lp4297
F0.0
aF36.0
aF26.0
aF66.0
aaa(lp4298
g14
a(lp4299
F69.0
aF30.0
aaa(lp4300
g11
a(lp4301
F42.0
aF0.0
aF67.5
aF-30.0
aaa(lp4302
g14
a(lp4303
F25.5
aF-66.0
aaa(lp4304
g11
a(lp4305
F0.0
aF-41.0
aF-28.0
aF-68.5
aaa(lp4306
g14
a(lp4307
F-65.0
aF-27.5
aaa(lp4308
g11
a(lp4309
F-38.0
aF0.0
aF-66.5
aF27.5
aaa(lp4310
g14
a(lp4311
F-28.5
aF68.5
aaa(lp4312
g29
a(lp4313
aasba(i__main__
Fonts
p4314
(dp4315
g3
S'i_OriyaSangamMN.svg'
p4316
sg5
(lp4317
(lp4318
g8
a(lp4319
F298.0
aF1402.0
aaa(lp4320
g34
a(lp4321
F-173.0
aaa(lp4322
g43
a(lp4323
F-148.0
aaa(lp4324
g34
a(lp4325
F173.0
aaa(lp4326
g43
a(lp4327
F148.0
aaa(lp4328
g29
a(lp4329
aa(lp4330
g8
a(lp4331
F298.0
aF1018.0
aaa(lp4332
g34
a(lp4333
F-1018.0
aaa(lp4334
g43
a(lp4335
F-148.0
aaa(lp4336
g34
a(lp4337
F1018.0
aaa(lp4338
g43
a(lp4339
F148.0
aaa(lp4340
g29
a(lp4341
aasba(i__main__
Fonts
p4342
(dp4343
g3
S'i_Arial-ItalicMT.svg'
p4344
sg5
(lp4345
(lp4346
g8
a(lp4347
F325.0
aF1261.0
aaa(lp4348
g84
a(lp4349
F43.0
aF205.0
aaa(lp4350
g43
a(lp4351
F180.0
aaa(lp4352
g84
a(lp4353
F-43.0
aF-205.0
aaa(lp4354
g43
a(lp4355
F-180.0
aaa(lp4356
g29
a(lp4357
aa(lp4358
g8
a(lp4359
F61.0
aF0.0
aaa(lp4360
g84
a(lp4361
F222.0
aF1062.0
aaa(lp4362
g43
a(lp4363
F181.0
aaa(lp4364
g84
a(lp4365
F-222.0
aF-1062.0
aaa(lp4366
g43
a(lp4367
F-181.0
aaa(lp4368
g29
a(lp4369
aasba(i__main__
Fonts
p4370
(dp4371
g3
S'i_Arial-BoldMT.svg'
p4372
sg5
(lp4373
(lp4374
g8
a(lp4375
F147.0
aF1206.0
aaa(lp4376
g34
a(lp4377
F260.0
aaa(lp4378
g43
a(lp4379
F281.0
aaa(lp4380
g34
a(lp4381
F-260.0
aaa(lp4382
g43
a(lp4383
F-281.0
aaa(lp4384
g29
a(lp4385
aa(lp4386
g8
a(lp4387
F147.0
aF0.0
aaa(lp4388
g34
a(lp4389
F1062.0
aaa(lp4390
g43
a(lp4391
F281.0
aaa(lp4392
g34
a(lp4393
F-1062.0
aaa(lp4394
g43
a(lp4395
F-281.0
aaa(lp4396
g29
a(lp4397
aasba(i__main__
Fonts
p4398
(dp4399
g3
S'i_ComicSansMS-Bold.svg'
p4400
sg5
(lp4401
(lp4402
g8
a(lp4403
F330.0
aF1202.0
aaa(lp4404
g11
a(lp4405
F-64.0
aF0.0
aF-111.0
aF43.0
aaa(lp4406
g14
a(lp4407
F-47.0
aF105.0
aaa(lp4408
g14
a(lp4409
F47.0
aF105.0
aaa(lp4410
g14
a(lp4411
F111.0
aF43.0
aaa(lp4412
g14
a(lp4413
F110.5
aF-43.0
aaa(lp4414
g14
a(lp4415
F46.5
aF-105.0
aaa(lp4416
g14
a(lp4417
F-46.5
aF-105.0
aaa(lp4418
g14
a(lp4419
F-110.5
aF-43.0
aaa(lp4420
g29
a(lp4421
aa(lp4422
g8
a(lp4423
F415.0
aF469.0
aaa(lp4424
g11
a(lp4425
F0.0
aF-57.0
aF3.5
aF-183.0
aaa(lp4426
g14
a(lp4427
F3.5
aF-183.0
aaa(lp4428
g11
a(lp4429
F0.0
aF-58.0
aF-39.0
aF-95.5
aaa(lp4430
g14
a(lp4431
F-99.0
aF-37.5
aaa(lp4432
g14
a(lp4433
F-99.0
aF37.5
aaa(lp4434
g14
a(lp4435
F-39.0
aF95.5
aaa(lp4436
g11
a(lp4437
F0.0
aF57.0
aF-3.5
aF183.0
aaa(lp4438
g14
a(lp4439
F-3.5
aF183.0
aaa(lp4440
g11
a(lp4441
F0.0
aF89.0
aF10.0
aF223.0
aaa(lp4442
g14
a(lp4443
F10.0
aF223.0
aaa(lp4444
g11
a(lp4445
F0.0
aF58.0
aF39.0
aF95.5
aaa(lp4446
g14
a(lp4447
F99.0
aF37.5
aaa(lp4448
g14
a(lp4449
F99.0
aF-37.5
aaa(lp4450
g14
a(lp4451
F39.0
aF-95.5
aaa(lp4452
g11
a(lp4453
F0.0
aF-89.0
aF-10.0
aF-223.0
aaa(lp4454
g14
a(lp4455
F-10.0
aF-223.0
aaa(lp4456
g29
a(lp4457
aasba(i__main__
Fonts
p4458
(dp4459
g3
S'i_ArialMT.svg'
p4460
sg5
(lp4461
(lp4462
g8
a(lp4463
F136.0
aF1259.0
aaa(lp4464
g34
a(lp4465
F207.0
aaa(lp4466
g43
a(lp4467
F180.0
aaa(lp4468
g34
a(lp4469
F-207.0
aaa(lp4470
g43
a(lp4471
F-180.0
aaa(lp4472
g29
a(lp4473
aa(lp4474
g8
a(lp4475
F136.0
aF0.0
aaa(lp4476
g34
a(lp4477
F1062.0
aaa(lp4478
g43
a(lp4479
F180.0
aaa(lp4480
g34
a(lp4481
F-1062.0
aaa(lp4482
g43
a(lp4483
F-180.0
aaa(lp4484
g29
a(lp4485
aasba(i__main__
Fonts
p4486
(dp4487
g3
S'i_Arial-BoldItalicMT.svg'
p4488
sg5
(lp4489
(lp4490
g8
a(lp4491
F388.0
aF1466.0
aaa(lp4492
g43
a(lp4493
F287.0
aaa(lp4494
g84
a(lp4495
F-54.0
aF-260.0
aaa(lp4496
g43
a(lp4497
F-287.0
aaa(lp4498
g29
a(lp4499
aa(lp4500
g8
a(lp4501
F304.0
aF1062.0
aaa(lp4502
g43
a(lp4503
F287.0
aaa(lp4504
g84
a(lp4505
F-222.0
aF-1062.0
aaa(lp4506
g43
a(lp4507
F-287.0
aaa(lp4508
g29
a(lp4509
aasba(i__main__
Fonts
p4510
(dp4511
g3
S'i_ArialRoundedMTBold.svg'
p4512
sg5
(lp4513
(lp4514
g8
a(lp4515
F414.0
aF930.0
aaa(lp4516
g34
a(lp4517
F-789.0
aaa(lp4518
g11
a(lp4519
F0.0
aF-82.0
aF-39.0
aF-124.0
aaa(lp4520
g14
a(lp4521
F-99.0
aF-42.0
aaa(lp4522
g14
a(lp4523
F-97.5
aF43.0
aaa(lp4524
g14
a(lp4525
F-37.5
aF123.0
aaa(lp4526
g34
a(lp4527
F781.0
aaa(lp4528
g11
a(lp4529
F0.0
aF81.0
aF37.5
aF122.0
aaa(lp4530
g14
a(lp4531
F97.5
aF41.0
aaa(lp4532
g14
a(lp4533
F99.0
aF-41.0
aaa(lp4534
g14
a(lp4535
F39.0
aF-114.0
aaa(lp4536
g29
a(lp4537
aa(lp4538
g8
a(lp4539
F279.0
aF1212.0
aaa(lp4540
g11
a(lp4541
F-57.0
aF0.0
aF-97.5
aF35.0
aaa(lp4542
g14
a(lp4543
F-40.5
aF99.0
aaa(lp4544
g11
a(lp4545
F0.0
aF58.0
aF41.5
aF95.5
aaa(lp4546
g14
a(lp4547
F96.5
aF37.5
aaa(lp4548
g11
a(lp4549
F53.0
aF0.0
aF94.0
aF-34.0
aaa(lp4550
g14
a(lp4551
F41.0
aF-99.0
aaa(lp4552
g11
a(lp4553
F0.0
aF-63.0
aF-40.0
aF-98.5
aaa(lp4554
g14
a(lp4555
F-95.0
aF-35.5
aaa(lp4556
g29
a(lp4557
aasba(i__main__
Fonts
p4558
(dp4559
g3
S'i_SavoyeLetPlain.svg'
p4560
sg5
(lp4561
(lp4562
g8
a(lp4563
F202.0
aF977.0
aaa(lp4564
g11
a(lp4565
F26.0
aF0.0
aF42.0
aF-16.0
aaa(lp4566
g14
a(lp4567
F16.0
aF-42.0
aaa(lp4568
g11
a(lp4569
F0.0
aF-25.0
aF-17.0
aF-42.0
aaa(lp4570
g14
a(lp4571
F-41.0
aF-17.0
aaa(lp4572
g11
a(lp4573
F-23.0
aF0.0
aF-41.0
aF18.0
aaa(lp4574
g14
a(lp4575
F-18.0
aF41.0
aaa(lp4576
g11
a(lp4577
F0.0
aF24.0
aF17.0
aF41.0
aaa(lp4578
g14
a(lp4579
F42.0
aF17.0
aaa(lp4580
g29
a(lp4581
aa(lp4582
g8
a(lp4583
F173.0
aF585.0
aaa(lp4584
g84
a(lp4585
F-88.0
aF-329.0
aaa(lp4586
g11
a(lp4587
F-22.0
aF-81.0
aF-22.0
aF-130.0
aaa(lp4588
g11
a(lp4589
F0.0
aF-32.0
aF11.0
aF-52.0
aaa(lp4590
g14
a(lp4591
F29.0
aF-20.0
aaa(lp4592
g11
a(lp4593
F31.0
aF0.0
aF99.0
aF74.0
aaa(lp4594
g84
a(lp4595
F16.0
aF-14.0
aaa(lp4596
g84
a(lp4597
F-10.0
aF-11.0
aaa(lp4598
g11
a(lp4599
F-57.0
aF-67.0
aF-84.0
aF-90.5
aaa(lp4600
g14
a(lp4601
F-50.0
aF-23.5
aaa(lp4602
g11
a(lp4603
F-31.0
aF0.0
aF-52.5
aF31.5
aaa(lp4604
g14
a(lp4605
F-21.5
aF78.5
aaa(lp4606
g11
a(lp4607
F0.0
aF30.0
aF12.0
aF95.0
aaa(lp4608
g84
a(lp4609
F63.0
aF350.0
aaa(lp4610
g29
a(lp4611
aasba(i__main__
Fonts
p4612
(dp4613
g3
S'i_TamilMN.svg'
p4614
sg5
(lp4615
(lp4616
g8
a(lp4617
F196.0
aF985.0
aaa(lp4618
g84
a(lp4619
F143.0
aF58.0
aaa(lp4620
g43
a(lp4621
F59.0
aaa(lp4622
g34
a(lp4623
F-1043.0
aaa(lp4624
g43
a(lp4625
F-202.0
aaa(lp4626
g34
a(lp4627
F985.0
aaa(lp4628
g29
a(lp4629
aa(lp4630
g8
a(lp4631
F180.0
aF1416.0
aaa(lp4632
g11
a(lp4633
F0.0
aF24.0
aF9.0
aF45.0
aaa(lp4634
g14
a(lp4635
F25.0
aF37.0
aaa(lp4636
g14
a(lp4637
F37.0
aF25.0
aaa(lp4638
g14
a(lp4639
F45.0
aF9.0
aaa(lp4640
g14
a(lp4641
F45.0
aF-9.0
aaa(lp4642
g14
a(lp4643
F37.0
aF-25.0
aaa(lp4644
g14
a(lp4645
F25.0
aF-37.0
aaa(lp4646
g14
a(lp4647
F9.0
aF-45.0
aaa(lp4648
g14
a(lp4649
F-9.0
aF-45.0
aaa(lp4650
g14
a(lp4651
F-25.0
aF-37.0
aaa(lp4652
g14
a(lp4653
F-37.0
aF-25.0
aaa(lp4654
g14
a(lp4655
F-45.0
aF-9.0
aaa(lp4656
g14
a(lp4657
F-45.0
aF9.0
aaa(lp4658
g14
a(lp4659
F-37.0
aF25.0
aaa(lp4660
g14
a(lp4661
F-25.0
aF37.0
aaa(lp4662
g14
a(lp4663
F-9.0
aF45.0
aaa(lp4664
g29
a(lp4665
aasba(i__main__
Fonts
p4666
(dp4667
g3
S'i_PTSerif-Regular.svg'
p4668
sg5
(lp4669
(lp4670
g8
a(lp4671
F263.0
aF0.0
aaa(lp4672
g43
a(lp4673
F-222.0
aaa(lp4674
g34
a(lp4675
F25.0
aaa(lp4676
g11
a(lp4677
F15.0
aF8.0
aF31.0
aF13.5
aaa(lp4678
g14
a(lp4679
F35.0
aF10.5
aaa(lp4680
g34
a(lp4681
F393.0
aaa(lp4682
g84
a(lp4683
F-66.0
aF8.0
aaa(lp4684
g34
a(lp4685
F26.0
aaa(lp4686
g11
a(lp4687
F29.0
aF12.0
aF63.0
aF21.0
aaa(lp4688
g14
a(lp4689
F68.0
aF15.0
aaa(lp4690
g43
a(lp4691
F25.0
aaa(lp4692
g34
a(lp4693
F-463.0
aaa(lp4694
g11
a(lp4695
F20.0
aF-5.0
aF36.0
aF-10.5
aaa(lp4696
g14
a(lp4697
F30.0
aF-13.5
aaa(lp4698
g34
a(lp4699
F-25.0
aaa(lp4700
g29
a(lp4701
aa(lp4702
g8
a(lp4703
F88.0
aF670.0
aaa(lp4704
g11
a(lp4705
F0.0
aF27.0
aF17.5
aF43.0
aaa(lp4706
g14
a(lp4707
F46.5
aF16.0
aaa(lp4708
g14
a(lp4709
F46.0
aF-16.0
aaa(lp4710
g14
a(lp4711
F17.0
aF-43.0
aaa(lp4712
g14
a(lp4713
F-17.0
aF-42.5
aaa(lp4714
g14
a(lp4715
F-46.0
aF-15.5
aaa(lp4716
g14
a(lp4717
F-46.5
aF15.5
aaa(lp4718
g14
a(lp4719
F-17.5
aF42.5
aaa(lp4720
g29
a(lp4721
aasba(i__main__
Fonts
p4722
(dp4723
g3
S'i_TimesNewRomanPS-ItalicMT.svg'
p4724
sg5
(lp4725
(lp4726
g8
a(lp4727
F458.0
aF1302.0
aaa(lp4728
g11
a(lp4729
F42.0
aF0.0
aF71.0
aF-29.0
aaa(lp4730
g14
a(lp4731
F29.0
aF-71.0
aaa(lp4732
g11
a(lp4733
F0.0
aF-41.0
aF-29.5
aF-70.5
aaa(lp4734
g14
a(lp4735
F-70.5
aF-29.5
aaa(lp4736
g14
a(lp4737
F-70.5
aF29.5
aaa(lp4738
g14
a(lp4739
F-29.5
aF70.5
aaa(lp4740
g11
a(lp4741
F0.0
aF42.0
aF29.0
aF71.0
aaa(lp4742
g14
a(lp4743
F71.0
aF29.0
aaa(lp4744
g29
a(lp4745
aa(lp4746
g8
a(lp4747
F471.0
aF905.0
aaa(lp4748
g84
a(lp4749
F-198.0
aF-701.0
aaa(lp4750
g11
a(lp4751
F-20.0
aF-71.0
aF-20.0
aF-85.0
aaa(lp4752
g11
a(lp4753
F0.0
aF-16.0
aF9.5
aF-26.0
aaa(lp4754
g14
a(lp4755
F22.5
aF-10.0
aaa(lp4756
g11
a(lp4757
F15.0
aF0.0
aF36.0
aF16.0
aaa(lp4758
g11
a(lp4759
F57.0
aF45.0
aF115.0
aF128.0
aaa(lp4760
g84
a(lp4761
F35.0
aF-23.0
aaa(lp4762
g11
a(lp4763
F-68.0
aF-104.0
aF-160.0
aF-175.0
aaa(lp4764
g11
a(lp4765
F-68.0
aF-53.0
aF-130.0
aF-53.0
aaa(lp4766
g11
a(lp4767
F-41.0
aF0.0
aF-67.0
aF24.5
aaa(lp4768
g14
a(lp4769
F-26.0
aF61.5
aaa(lp4770
g14
a(lp4771
F25.0
aF123.0
aaa(lp4772
g84
a(lp4773
F130.0
aF448.0
aaa(lp4774
g11
a(lp4775
F32.0
aF110.0
aF32.0
aF138.0
aaa(lp4776
g11
a(lp4777
F0.0
aF22.0
aF-15.5
aF36.0
aaa(lp4778
g14
a(lp4779
F-42.5
aF14.0
aaa(lp4780
g11
a(lp4781
F-22.0
aF0.0
aF-91.0
aF-11.0
aaa(lp4782
g34
a(lp4783
F39.0
aaa(lp4784
g29
a(lp4785
aasba(i__main__
Fonts
p4786
(dp4787
g3
S'i_SnellRoundhand.svg'
p4788
sg5
(lp4789
(lp4790
g8
a(lp4791
F232.0
aF344.0
aaa(lp4792
g11
a(lp4793
F-55.0
aF-79.0
aF-93.0
aF-133.0
aaa(lp4794
g14
a(lp4795
F-61.5
aF-90.0
aaa(lp4796
g14
a(lp4797
F-34.0
aF-57.0
aaa(lp4798
g14
a(lp4799
F-10.5
aF-34.0
aaa(lp4800
g11
a(lp4801
F0.0
aF-26.0
aF21.0
aF-26.0
aaa(lp4802
g11
a(lp4803
F20.0
aF0.0
aF46.5
aF14.5
aaa(lp4804
g14
a(lp4805
F55.5
aF37.5
aaa(lp4806
g14
a(lp4807
F58.0
aF52.0
aaa(lp4808
g14
a(lp4809
F54.5
aF57.5
aaa(lp4810
g14
a(lp4811
F45.0
aF55.0
aaa(lp4812
g14
a(lp4813
F28.5
aF43.5
aaa(lp4814
g84
a(lp4815
F8.0
aF-5.0
aaa(lp4816
g11
a(lp4817
F-12.0
aF-20.0
aF-32.5
aF-48.0
aaa(lp4818
g14
a(lp4819
F-46.5
aF-57.5
aaa(lp4820
g14
a(lp4821
F-55.0
aF-58.5
aaa(lp4822
g14
a(lp4823
F-59.0
aF-52.0
aaa(lp4824
g14
a(lp4825
F-58.5
aF-37.0
aaa(lp4826
g14
a(lp4827
F-52.5
aF-14.0
aaa(lp4828
g11
a(lp4829
F-27.0
aF0.0
aF-40.0
aF15.0
aaa(lp4830
g14
a(lp4831
F-13.0
aF33.0
aaa(lp4832
g11
a(lp4833
F0.0
aF21.0
aF9.5
aF44.5
aaa(lp4834
g14
a(lp4835
F30.5
aF57.5
aaa(lp4836
g14
a(lp4837
F54.5
aF82.5
aaa(lp4838
g14
a(lp4839
F80.5
aF119.5
aaa(lp4840
g43
a(lp4841
F64.0
aaa(lp4842
g29
a(lp4843
aa(lp4844
g8
a(lp4845
F290.0
aF530.0
aaa(lp4846
g11
a(lp4847
F14.0
aF0.0
aF23.0
aF-9.5
aaa(lp4848
g14
a(lp4849
F9.0
aF-23.5
aaa(lp4850
g14
a(lp4851
F-9.0
aF-23.5
aaa(lp4852
g14
a(lp4853
F-23.0
aF-9.5
aaa(lp4854
g14
a(lp4855
F-23.0
aF9.5
aaa(lp4856
g14
a(lp4857
F-9.0
aF23.5
aaa(lp4858
g14
a(lp4859
F9.0
aF23.5
aaa(lp4860
g14
a(lp4861
F23.0
aF9.5
aaa(lp4862
g29
a(lp4863
aasba(i__main__
Fonts
p4864
(dp4865
g3
S'i_STIXGeneral-BoldItalic.svg'
p4866
sg5
(lp4867
(lp4868
g8
a(lp4869
F262.0
aF616.0
aaa(lp4870
g2327
a(lp4871
F0.0
aF-37.0
aF-30.0
aF-66.0
aF-68.0
aF-66.0
aaa(lp4872
g2330
a(lp4873
F-66.0
aF30.0
aF-66.0
aF69.0
aaa(lp4874
g2327
a(lp4875
F0.0
aF34.0
aF31.0
aF65.0
aF65.0
aF65.0
aaa(lp4876
g2327
a(lp4877
F38.0
aF0.0
aF69.0
aF-31.0
aF69.0
aF-68.0
aaa(lp4878
g29
a(lp4879
aa(lp4880
g8
a(lp4881
F216.0
aF142.0
aaa(lp4882
g84
a(lp4883
F22.0
aF-14.0
aaa(lp4884
g2327
a(lp4885
F-66.0
aF-108.0
aF-108.0
aF-137.0
aF-168.0
aF-137.0
aaa(lp4886
g2327
a(lp4887
F-41.0
aF0.0
aF-68.0
aF20.0
aF-68.0
aF63.0
aaa(lp4888
g2327
a(lp4889
F0.0
aF14.0
aF5.0
aF40.0
aF15.0
aF76.0
aaa(lp4890
g84
a(lp4891
F55.0
aF203.0
aaa(lp4892
g2327
a(lp4893
F6.0
aF24.0
aF8.0
aF37.0
aF8.0
aF45.0
aaa(lp4894
g2327
a(lp4895
F0.0
aF19.0
aF-16.0
aF29.0
aF-46.0
aF29.0
aaa(lp4896
g43
a(lp4897
F-14.0
aaa(lp4898
g34
a(lp4899
F27.0
aaa(lp4900
g2327
a(lp4901
F78.0
aF6.0
aF149.0
aF16.0
aF203.0
aF28.0
aaa(lp4902
g84
a(lp4903
F-91.0
aF-334.0
aaa(lp4904
g2327
a(lp4905
F-5.0
aF-17.0
aF-9.0
aF-42.0
aF-9.0
aF-51.0
aaa(lp4906
g2327
a(lp4907
F0.0
aF-12.0
aF7.0
aF-16.0
aF15.0
aF-16.0
aaa(lp4908
g2327
a(lp4909
F15.0
aF0.0
aF37.0
aF23.0
aF64.0
aF61.0
aaa(lp4910
g29
a(lp4911
aasba(i__main__
Fonts
p4912
(dp4913
g3
S'i_Georgia-Italic.svg'
p4914
sg5
(lp4915
(lp4916
g8
a(lp4917
F551.0
aF109.0
aaa(lp4918
g84
a(lp4919
F-15.0
aF-64.0
aaa(lp4920
g11
a(lp4921
F-92.0
aF-37.0
aF-147.0
aF-51.5
aaa(lp4922
g14
a(lp4923
F-94.0
aF-14.5
aaa(lp4924
g11
a(lp4925
F-80.0
aF0.0
aF-120.0
aF41.5
aaa(lp4926
g14
a(lp4927
F-40.0
aF102.5
aaa(lp4928
g11
a(lp4929
F0.0
aF23.0
aF4.0
aF48.0
aaa(lp4930
g14
a(lp4931
F13.0
aF63.0
aaa(lp4932
g84
a(lp4933
F106.0
aF425.0
aaa(lp4934
g11
a(lp4935
F8.0
aF35.0
aF15.5
aF75.0
aaa(lp4936
g14
a(lp4937
F7.5
aF68.0
aaa(lp4938
g11
a(lp4939
F0.0
aF56.0
aF-18.5
aF74.5
aaa(lp4940
g14
a(lp4941
F-75.5
aF18.5
aaa(lp4942
g11
a(lp4943
F-22.0
aF0.0
aF-58.5
aF-7.0
aaa(lp4944
g14
a(lp4945
F-55.5
aF-12.0
aaa(lp4946
g84
a(lp4947
F15.0
aF64.0
aaa(lp4948
g11
a(lp4949
F78.0
aF35.0
aF140.0
aF52.0
aaa(lp4950
g14
a(lp4951
F98.0
aF17.0
aaa(lp4952
g11
a(lp4953
F82.0
aF0.0
aF119.0
aF-39.0
aaa(lp4954
g14
a(lp4955
F37.0
aF-105.0
aaa(lp4956
g11
a(lp4957
F0.0
aF-18.0
aF-4.0
aF-49.0
aaa(lp4958
g14
a(lp4959
F-12.0
aF-62.0
aaa(lp4960
g84
a(lp4961
F-107.0
aF-425.0
aaa(lp4962
g11
a(lp4963
F-10.0
aF-39.0
aF-17.5
aF-76.5
aaa(lp4964
g14
a(lp4965
F-7.5
aF-61.5
aaa(lp4966
g11
a(lp4967
F0.0
aF-57.0
aF25.5
aF-78.0
aaa(lp4968
g14
a(lp4969
F82.5
aF-21.0
aaa(lp4970
g11
a(lp4971
F19.0
aF0.0
aF54.5
aF5.0
aaa(lp4972
g14
a(lp4973
F54.5
aF12.0
aaa(lp4974
g29
a(lp4975
aa(lp4976
g8
a(lp4977
F622.0
aF1387.0
aaa(lp4978
g11
a(lp4979
F0.0
aF-57.0
aF-37.0
aF-99.5
aaa(lp4980
g14
a(lp4981
F-92.0
aF-42.5
aaa(lp4982
g11
a(lp4983
F-51.0
aF0.0
aF-88.0
aF40.5
aaa(lp4984
g14
a(lp4985
F-37.0
aF92.5
aaa(lp4986
g11
a(lp4987
F0.0
aF55.0
aF37.0
aF96.0
aaa(lp4988
g14
a(lp4989
F88.0
aF41.0
aaa(lp4990
g11
a(lp4991
F57.0
aF0.0
aF93.0
aF-38.5
aaa(lp4992
g14
a(lp4993
F36.0
aF-89.5
aaa(lp4994
g29
a(lp4995
aasba(i__main__
Fonts
p4996
(dp4997
g3
S'i_ChalkboardSE-Light.svg'
p4998
sg5
(lp4999
(lp5000
g8
a(lp5001
F150.0
aF32.0
aaa(lp5002
g11
a(lp5003
F-1.0
aF-23.0
aF-13.5
aF-34.5
aaa(lp5004
g14
a(lp5005
F-27.5
aF-11.5
aaa(lp5006
g11
a(lp5007
F-14.0
aF0.0
aF-26.0
aF10.5
aaa(lp5008
g14
a(lp5009
F-15.0
aF32.5
aaa(lp5010
g11
a(lp5011
F-1.0
aF94.0
aF-1.5
aF192.0
aaa(lp5012
g14
a(lp5013
F-1.5
aF192.0
aaa(lp5014
g11
a(lp5015
F5.0
aF20.0
aF16.0
aF30.0
aaa(lp5016
g14
a(lp5017
F25.0
aF10.0
aaa(lp5018
g11
a(lp5019
F13.0
aF0.0
aF24.5
aF-9.0
aaa(lp5020
g14
a(lp5021
F16.5
aF-28.0
aaa(lp5022
g11
a(lp5023
F1.0
aF-94.0
aF1.5
aF-192.0
aaa(lp5024
g14
a(lp5025
F1.5
aF-192.0
aaa(lp5026
g29
a(lp5027
aa(lp5028
g8
a(lp5029
F58.0
aF576.0
aaa(lp5030
g11
a(lp5031
F0.0
aF22.0
aF14.0
aF37.5
aaa(lp5032
g14
a(lp5033
F34.0
aF15.5
aaa(lp5034
g14
a(lp5035
F34.5
aF-15.5
aaa(lp5036
g14
a(lp5037
F14.5
aF-37.5
aaa(lp5038
g11
a(lp5039
F0.0
aF-21.0
aF-14.5
aF-36.5
aaa(lp5040
g14
a(lp5041
F-34.5
aF-15.5
aaa(lp5042
g14
a(lp5043
F-34.0
aF15.5
aaa(lp5044
g14
a(lp5045
F-14.0
aF36.5
aaa(lp5046
g29
a(lp5047
aasba(i__main__
Fonts
p5048
(dp5049
g3
S'i_CourierNewPS-BoldItalicMT.svg'
p5050
sg5
(lp5051
(lp5052
g8
a(lp5053
F964.0
aF1297.0
aaa(lp5054
g84
a(lp5055
F-46.0
aF-217.0
aaa(lp5056
g43
a(lp5057
F-244.0
aaa(lp5058
g84
a(lp5059
F46.0
aF217.0
aaa(lp5060
g43
a(lp5061
F244.0
aaa(lp5062
g29
a(lp5063
aa(lp5064
g8
a(lp5065
F910.0
aF908.0
aaa(lp5066
g84
a(lp5067
F-150.0
aF-703.0
aaa(lp5068
g43
a(lp5069
F247.0
aaa(lp5070
g11
a(lp5071
F68.0
aF0.0
aF92.5
aF-21.0
aaa(lp5072
g14
a(lp5073
F24.5
aF-60.0
aaa(lp5074
g11
a(lp5075
F0.0
aF-62.0
aF-60.0
aF-103.0
aaa(lp5076
g11
a(lp5077
F-30.0
aF-21.0
aF-101.0
aF-21.0
aaa(lp5078
g43
a(lp5079
F-698.0
aaa(lp5080
g11
a(lp5081
F-68.0
aF0.0
aF-92.5
aF21.5
aaa(lp5082
g14
a(lp5083
F-24.5
aF59.5
aaa(lp5084
g11
a(lp5085
F0.0
aF62.0
aF58.0
aF102.0
aaa(lp5086
g11
a(lp5087
F32.0
aF22.0
aF103.0
aF22.0
aaa(lp5088
g43
a(lp5089
F246.0
aaa(lp5090
g84
a(lp5091
F106.0
aF498.0
aaa(lp5092
g43
a(lp5093
F-165.0
aaa(lp5094
g11
a(lp5095
F-68.0
aF0.0
aF-92.5
aF21.5
aaa(lp5096
g14
a(lp5097
F-24.5
aF59.5
aaa(lp5098
g11
a(lp5099
F0.0
aF60.0
aF57.0
aF101.0
aaa(lp5100
g11
a(lp5101
F31.0
aF23.0
aF104.0
aF23.0
aaa(lp5102
g43
a(lp5103
F370.0
aaa(lp5104
g29
a(lp5105
aasba(i__main__
Fonts
p5106
(dp5107
g3
S'i_Marion-Regular.svg'
p5108
sg5
(lp5109
(lp5110
g8
a(lp5111
F33.0
aF0.0
aaa(lp5112
g34
a(lp5113
F30.0
aaa(lp5114
g11
a(lp5115
F69.0
aF0.0
aF69.0
aF61.0
aaa(lp5116
g34
a(lp5117
F199.0
aaa(lp5118
g11
a(lp5119
F0.0
aF79.0
aF-61.0
aF79.0
aaa(lp5120
g34
a(lp5121
F27.0
aaa(lp5122
g84
a(lp5123
F144.0
aF31.0
aaa(lp5124
g34
a(lp5125
F-340.0
aaa(lp5126
g11
a(lp5127
F0.0
aF-57.0
aF76.0
aF-57.0
aaa(lp5128
g34
a(lp5129
F-30.0
aaa(lp5130
g43
a(lp5131
F-228.0
aaa(lp5132
g29
a(lp5133
aa(lp5134
g8
a(lp5135
F136.0
aF537.0
aaa(lp5136
g11
a(lp5137
F-53.0
aF0.0
aF-53.0
aF61.0
aaa(lp5138
g11
a(lp5139
F0.0
aF57.0
aF57.0
aF57.0
aaa(lp5140
g11
a(lp5141
F54.0
aF0.0
aF54.0
aF-57.0
aaa(lp5142
g11
a(lp5143
F0.0
aF-61.0
aF-58.0
aF-61.0
aaa(lp5144
g29
a(lp5145
aasba(i__main__
Fonts
p5146
(dp5147
g3
S'i_STIXGeneral-Italic.svg'
p5148
sg5
(lp5149
(lp5150
g8
a(lp5151
F264.0
aF599.0
aaa(lp5152
g2327
a(lp5153
F0.0
aF-28.0
aF-23.0
aF-51.0
aF-49.0
aF-51.0
aaa(lp5154
g2327
a(lp5155
F-29.0
aF0.0
aF-48.0
aF21.0
aF-48.0
aF53.0
aaa(lp5156
g2327
a(lp5157
F0.0
aF31.0
aF20.0
aF53.0
aF47.0
aF53.0
aaa(lp5158
g2330
a(lp5159
F50.0
aF-26.0
aF50.0
aF-55.0
aaa(lp5160
g29
a(lp5161
aa(lp5162
g8
a(lp5163
F222.0
aF114.0
aaa(lp5164
g84
a(lp5165
F13.0
aF-11.0
aaa(lp5166
g2327
a(lp5167
F-55.0
aF-84.0
aF-87.0
aF-114.0
aF-137.0
aF-114.0
aaa(lp5168
g2327
a(lp5169
F-33.0
aF0.0
aF-49.0
aF18.0
aF-49.0
aF55.0
aaa(lp5170
g2327
a(lp5171
F0.0
aF20.0
aF7.0
aF55.0
aF22.0
aF111.0
aaa(lp5172
g84
a(lp5173
F48.0
aF177.0
aaa(lp5174
g2327
a(lp5175
F5.0
aF18.0
aF9.0
aF36.0
aF9.0
aF44.0
aaa(lp5176
g2327
a(lp5177
F0.0
aF20.0
aF-10.0
aF23.0
aF-64.0
aF24.0
aaa(lp5178
g34
a(lp5179
F16.0
aaa(lp5180
g2327
a(lp5181
F39.0
aF3.0
aF59.0
aF6.0
aF160.0
aF25.0
aaa(lp5182
g84
a(lp5183
F4.0
aF-3.0
aaa(lp5184
g84
a(lp5185
F-94.0
aF-343.0
aaa(lp5186
g2327
a(lp5187
F-5.0
aF-17.0
aF-10.0
aF-30.0
aF-10.0
aF-44.0
aaa(lp5188
g2327
a(lp5189
F0.0
aF-10.0
aF6.0
aF-15.0
aF14.0
aF-15.0
aaa(lp5190
g2327
a(lp5191
F17.0
aF0.0
aF41.0
aF21.0
aF84.0
aF78.0
aaa(lp5192
g29
a(lp5193
aasba(i__main__
Fonts
p5194
(dp5195
g3
S'i_Seravek.svg'
p5196
sg5
(lp5197
(lp5198
g8
a(lp5199
F75.0
aF0.0
aaa(lp5200
g34
a(lp5201
F480.0
aaa(lp5202
g43
a(lp5203
F90.0
aaa(lp5204
g34
a(lp5205
F-480.0
aaa(lp5206
g43
a(lp5207
F-90.0
aaa(lp5208
g29
a(lp5209
aa(lp5210
g8
a(lp5211
F63.0
aF622.0
aaa(lp5212
g11
a(lp5213
F0.0
aF23.0
aF15.5
aF40.0
aaa(lp5214
g14
a(lp5215
F41.5
aF17.0
aaa(lp5216
g14
a(lp5217
F41.5
aF-17.0
aaa(lp5218
g14
a(lp5219
F15.5
aF-40.0
aaa(lp5220
g14
a(lp5221
F-15.5
aF-40.0
aaa(lp5222
g14
a(lp5223
F-41.5
aF-17.0
aaa(lp5224
g14
a(lp5225
F-41.5
aF17.0
aaa(lp5226
g14
a(lp5227
F-15.5
aF40.0
aaa(lp5228
g29
a(lp5229
aasba(i__main__
Fonts
p5230
(dp5231
g3
S'i_Kefa-Regular.svg'
p5232
sg5
(lp5233
(lp5234
g8
a(lp5235
F278.0
aF1161.0
aaa(lp5236
g11
a(lp5237
F-65.0
aF0.0
aF-96.0
aF27.0
aaa(lp5238
g14
a(lp5239
F-31.0
aF78.0
aaa(lp5240
g11
a(lp5241
F1.0
aF55.0
aF40.0
aF88.0
aaa(lp5242
g14
a(lp5243
F110.0
aF33.0
aaa(lp5244
g11
a(lp5245
F70.0
aF0.0
aF100.0
aF-28.5
aaa(lp5246
g14
a(lp5247
F30.0
aF-76.5
aaa(lp5248
g11
a(lp5249
F0.0
aF-54.0
aF-37.0
aF-87.5
aaa(lp5250
g14
a(lp5251
F-116.0
aF-33.5
aaa(lp5252
g29
a(lp5253
aa(lp5254
g8
a(lp5255
F420.0
aF103.0
aaa(lp5256
g43
a(lp5257
F106.0
aaa(lp5258
g11
a(lp5259
F13.0
aF-26.0
aF13.0
aF-56.0
aaa(lp5260
g11
a(lp5261
F0.0
aF-27.0
aF-11.0
aF-37.0
aaa(lp5262
g14
a(lp5263
F-43.0
aF-10.0
aaa(lp5264
g43
a(lp5265
F-393.0
aaa(lp5266
g11
a(lp5267
F-12.0
aF32.0
aF-12.0
aF60.0
aaa(lp5268
g11
a(lp5269
F0.0
aF22.0
aF10.5
aF32.5
aaa(lp5270
g14
a(lp5271
F36.5
aF10.5
aaa(lp5272
g43
a(lp5273
F74.0
aaa(lp5274
g11
a(lp5275
F7.0
aF139.0
aF7.0
aF326.0
aaa(lp5276
g11
a(lp5277
F0.0
aF228.0
aF-3.5
aF304.5
aaa(lp5278
g14
a(lp5279
F-16.5
aF105.5
aaa(lp5280
g14
a(lp5281
F-36.5
aF36.0
aaa(lp5282
g14
a(lp5283
F-58.5
aF7.0
aaa(lp5284
g11
a(lp5285
F-13.0
aF21.0
aF-13.0
aF49.0
aaa(lp5286
g11
a(lp5287
F0.0
aF41.0
aF39.0
aF50.0
aaa(lp5288
g14
a(lp5289
F151.0
aF9.0
aaa(lp5290
g11
a(lp5291
F79.0
aF0.0
aF107.0
aF-7.5
aaa(lp5292
g14
a(lp5293
F32.0
aF-28.0
aaa(lp5294
g14
a(lp5295
F4.0
aF-70.5
aaa(lp5296
g34
a(lp5297
F-455.0
aaa(lp5298
g11
a(lp5299
F0.0
aF-187.0
aF7.0
aF-326.0
aaa(lp5300
g29
a(lp5301
aasba(i__main__
Fonts
p5302
(dp5303
g3
S'i_Copperplate.svg'
p5304
sg5
(lp5305
(lp5306
g8
a(lp5307
F90.0
aF18.0
aaa(lp5308
g11
a(lp5309
F16.0
aF0.0
aF22.0
aF3.5
aaa(lp5310
g14
a(lp5311
F6.0
aF11.5
aaa(lp5312
g34
a(lp5313
F374.0
aaa(lp5314
g11
a(lp5315
F0.0
aF8.0
aF-6.0
aF11.5
aaa(lp5316
g14
a(lp5317
F-22.0
aF3.5
aaa(lp5318
g34
a(lp5319
F18.0
aaa(lp5320
g43
a(lp5321
F152.0
aaa(lp5322
g34
a(lp5323
F-18.0
aaa(lp5324
g11
a(lp5325
F-28.0
aF0.0
aF-28.0
aF-15.0
aaa(lp5326
g34
a(lp5327
F-374.0
aaa(lp5328
g11
a(lp5329
F0.0
aF-15.0
aF28.0
aF-15.0
aaa(lp5330
g34
a(lp5331
F-18.0
aaa(lp5332
g43
a(lp5333
F-152.0
aaa(lp5334
g34
a(lp5335
F18.0
aaa(lp5336
g29
a(lp5337
aasba(i__main__
Fonts
p5338
(dp5339
g3
S'i_Charter-Roman.svg'
p5340
sg5
(lp5341
(lp5342
g8
a(lp5343
F307.0
aF995.0
aaa(lp5344
g43
a(lp5345
F80.0
aaa(lp5346
g34
a(lp5347
F-878.0
aaa(lp5348
g84
a(lp5349
F35.0
aF-33.0
aaa(lp5350
g84
a(lp5351
F110.0
aF-10.0
aaa(lp5352
g34
a(lp5353
F-74.0
aaa(lp5354
g43
a(lp5355
F-460.0
aaa(lp5356
g34
a(lp5357
F74.0
aaa(lp5358
g84
a(lp5359
F108.0
aF10.0
aaa(lp5360
g84
a(lp5361
F35.0
aF33.0
aaa(lp5362
g34
a(lp5363
F741.0
aaa(lp5364
g43
a(lp5365
F-143.0
aaa(lp5366
g34
a(lp5367
F64.0
aaa(lp5368
g29
a(lp5369
aa(lp5370
g8
a(lp5371
F315.0
aF1450.0
aaa(lp5372
g11
a(lp5373
F50.0
aF0.0
aF84.5
aF-35.0
aaa(lp5374
g14
a(lp5375
F34.5
aF-84.0
aaa(lp5376
g14
a(lp5377
F-34.5
aF-83.0
aaa(lp5378
g14
a(lp5379
F-84.5
aF-34.0
aaa(lp5380
g11
a(lp5381
F-49.0
aF0.0
aF-83.5
aF34.0
aaa(lp5382
g14
a(lp5383
F-34.5
aF83.0
aaa(lp5384
g11
a(lp5385
F0.0
aF50.0
aF34.5
aF84.5
aaa(lp5386
g14
a(lp5387
F83.5
aF34.5
aaa(lp5388
g29
a(lp5389
aasba(i__main__
Fonts
p5390
(dp5391
g3
S'i_BodoniOrnamentsITCTT.svg'
p5392
sg5
(lp5393
(lp5394
g8
a(lp5395
F1068.0
aF73.0
aaa(lp5396
g11
a(lp5397
F0.0
aF-13.0
aF-20.0
aF-34.5
aaa(lp5398
g14
a(lp5399
F-37.0
aF-21.5
aaa(lp5400
g11
a(lp5401
F-9.0
aF0.0
aF-55.5
aF26.5
aaa(lp5402
g14
a(lp5403
F-90.5
aF26.5
aaa(lp5404
g11
a(lp5405
F-57.0
aF0.0
aF-117.0
aF-24.0
aaa(lp5406
g11
a(lp5407
F0.0
aF-3.0
aF17.0
aF-53.0
aaa(lp5408
g11
a(lp5409
F13.0
aF-42.0
aF13.0
aF-85.0
aaa(lp5410
g11
a(lp5411
F0.0
aF-59.0
aF-26.0
aF-59.0
aaa(lp5412
g11
a(lp5413
F-19.0
aF0.0
aF-27.0
aF45.0
aaa(lp5414
g11
a(lp5415
F-13.0
aF82.0
aF-22.0
aF110.0
aaa(lp5416
g11
a(lp5417
F-34.0
aF104.0
aF-134.0
aF104.0
aaa(lp5418
g11
a(lp5419
F-63.0
aF0.0
aF-107.0
aF-46.0
aaa(lp5420
g11
a(lp5421
F-61.0
aF-64.0
aF-61.0
aF-150.0
aaa(lp5422
g11
a(lp5423
F0.0
aF-10.0
aF3.5
aF-21.0
aaa(lp5424
g14
a(lp5425
F3.5
aF-12.0
aaa(lp5426
g11
a(lp5427
F0.0
aF-11.0
aF-29.0
aF-18.0
aaa(lp5428
g11
a(lp5429
F-28.0
aF11.0
aF-28.0
aF40.0
aaa(lp5430
g11
a(lp5431
F0.0
aF19.0
aF5.0
aF48.0
aaa(lp5432
g14
a(lp5433
F5.0
aF38.0
aaa(lp5434
g11
a(lp5435
F0.0
aF8.0
aF-9.0
aF16.0
aaa(lp5436
g14
a(lp5437
F-19.0
aF16.0
aaa(lp5438
g11
a(lp5439
F-52.0
aF45.0
aF-114.0
aF45.0
aaa(lp5440
g11
a(lp5441
F-33.0
aF0.0
aF-68.0
aF-18.0
aaa(lp5442
g14
a(lp5443
F-43.0
aF-18.0
aaa(lp5444
g11
a(lp5445
F-36.0
aF0.0
aF-36.0
aF46.0
aaa(lp5446
g11
a(lp5447
F0.0
aF47.0
aF23.0
aF74.5
aaa(lp5448
g14
a(lp5449
F63.0
aF27.5
aaa(lp5450
g11
a(lp5451
F45.0
aF0.0
aF85.0
aF-24.0
aaa(lp5452
g11
a(lp5453
F27.0
aF-17.0
aF73.0
aF-60.0
aaa(lp5454
g11
a(lp5455
F16.0
aF-15.0
aF26.0
aF-15.0
aaa(lp5456
g11
a(lp5457
F3.0
aF0.0
aF10.0
aF3.0
aaa(lp5458
g11
a(lp5459
F0.0
aF4.0
aF2.0
aF9.5
aaa(lp5460
g14
a(lp5461
F2.0
aF7.5
aaa(lp5462
g11
a(lp5463
F0.0
aF4.0
aF-22.0
aF29.0
aaa(lp5464
g11
a(lp5465
F-63.0
aF71.0
aF-86.0
aF82.0
aaa(lp5466
g11
a(lp5467
F-104.0
aF51.0
aF-111.0
aF55.0
aaa(lp5468
g11
a(lp5469
F-46.0
aF29.0
aF-46.0
aF62.0
aaa(lp5470
g11
a(lp5471
F0.0
aF31.0
aF38.0
aF31.0
aaa(lp5472
g11
a(lp5473
F73.0
aF0.0
aF184.0
aF-94.0
aaa(lp5474
g11
a(lp5475
F25.0
aF-21.0
aF29.0
aF-25.0
aaa(lp5476
g11
a(lp5477
F18.0
aF-18.0
aF30.5
aF-40.0
aaa(lp5478
g14
a(lp5479
F24.5
aF-44.0
aaa(lp5480
g11
a(lp5481
F14.0
aF-26.0
aF29.0
aF-39.0
aaa(lp5482
g11
a(lp5483
F9.0
aF9.0
aF9.0
aF23.0
aaa(lp5484
g11
a(lp5485
F0.0
aF20.0
aF-63.0
aF115.0
aaa(lp5486
g11
a(lp5487
F-39.0
aF59.0
aF-94.0
aF104.0
aaa(lp5488
g11
a(lp5489
F-51.0
aF36.0
aF-101.0
aF72.0
aaa(lp5490
g11
a(lp5491
F-43.0
aF30.0
aF-43.0
aF58.0
aaa(lp5492
g11
a(lp5493
F0.0
aF16.0
aF12.5
aF30.5
aaa(lp5494
g14
a(lp5495
F23.5
aF14.5
aaa(lp5496
g11
a(lp5497
F32.0
aF0.0
aF95.0
aF-48.0
aaa(lp5498
g11
a(lp5499
F73.0
aF-56.0
aF139.0
aF-145.0
aaa(lp5500
g11
a(lp5501
F10.0
aF-14.0
aF37.5
aF-76.5
aaa(lp5502
g14
a(lp5503
F57.5
aF-103.5
aaa(lp5504
g11
a(lp5505
F3.0
aF5.0
aF3.0
aF10.0
aaa(lp5506
g11
a(lp5507
F-1.0
aF7.0
aF-1.0
aF10.0
aaa(lp5508
g11
a(lp5509
F0.0
aF63.0
aF-66.0
aF179.0
aaa(lp5510
g11
a(lp5511
F-22.0
aF40.0
aF-56.0
aF97.0
aaa(lp5512
g11
a(lp5513
F-28.0
aF37.0
aF-98.0
aF107.0
aaa(lp5514
g11
a(lp5515
F-49.0
aF48.0
aF-49.0
aF68.0
aaa(lp5516
g11
a(lp5517
F0.0
aF16.0
aF19.5
aF32.5
aaa(lp5518
g14
a(lp5519
F41.5
aF16.5
aaa(lp5520
g11
a(lp5521
F39.0
aF0.0
aF95.0
aF-68.0
aaa(lp5522
g11
a(lp5523
F60.0
aF-73.0
aF95.0
aF-178.0
aaa(lp5524
g11
a(lp5525
F23.0
aF-69.0
aF43.0
aF-147.0
aaa(lp5526
g11
a(lp5527
F12.0
aF-52.0
aF17.0
aF-55.0
aaa(lp5528
g11
a(lp5529
F6.0
aF10.0
aF6.0
aF43.0
aaa(lp5530
g11
a(lp5531
F0.0
aF93.0
aF-22.0
aF195.0
aaa(lp5532
g11
a(lp5533
F-20.0
aF92.0
aF-47.0
aF148.0
aaa(lp5534
g11
a(lp5535
F-14.0
aF28.0
aF-49.0
aF81.0
aaa(lp5536
g11
a(lp5537
F-25.0
aF37.0
aF-25.0
aF51.0
aaa(lp5538
g11
a(lp5539
F0.0
aF12.0
aF10.0
aF12.0
aaa(lp5540
g11
a(lp5541
F13.0
aF0.0
aF42.0
aF-23.0
aaa(lp5542
g11
a(lp5543
F36.0
aF-27.0
aF60.0
aF-36.0
aaa(lp5544
g11
a(lp5545
F6.0
aF12.0
aF6.0
aF22.0
aaa(lp5546
g11
a(lp5547
F0.0
aF5.0
aF-1.0
aF15.5
aaa(lp5548
g14
a(lp5549
F-1.0
aF14.5
aaa(lp5550
g11
a(lp5551
F0.0
aF36.0
aF45.0
aF36.0
aaa(lp5552
g11
a(lp5553
F32.0
aF0.0
aF32.0
aF-34.0
aaa(lp5554
g11
a(lp5555
F0.0
aF-7.0
aF-2.5
aF-20.5
aaa(lp5556
g14
a(lp5557
F-2.5
aF-19.5
aaa(lp5558
g11
a(lp5559
F0.0
aF-1.0
aF1.0
aF-5.0
aaa(lp5560
g34
a(lp5561
F-5.0
aaa(lp5562
g11
a(lp5563
F2.0
aF-3.0
aF4.0
aF-3.0
aaa(lp5564
g11
a(lp5565
F7.0
aF0.0
aF34.0
aF30.5
aaa(lp5566
g14
a(lp5567
F39.0
aF30.5
aaa(lp5568
g11
a(lp5569
F7.0
aF0.0
aF12.0
aF-4.0
aaa(lp5570
g11
a(lp5571
F-93.0
aF-231.0
aF-93.0
aF-487.0
aaa(lp5572
g11
a(lp5573
F0.0
aF-20.0
aF10.0
aF-51.0
aaa(lp5574
g11
a(lp5575
F10.0
aF29.0
aF48.0
aF215.0
aaa(lp5576
g11
a(lp5577
F17.0
aF81.0
aF70.0
aF201.0
aaa(lp5578
g11
a(lp5579
F12.0
aF26.0
aF23.0
aF52.0
aaa(lp5580
g11
a(lp5581
F18.0
aF25.0
aF57.0
aF25.0
aaa(lp5582
g11
a(lp5583
F33.0
aF0.0
aF33.0
aF-43.0
aaa(lp5584
g11
a(lp5585
F0.0
aF-8.0
aF-30.0
aF-69.0
aaa(lp5586
g11
a(lp5587
F-43.0
aF-86.0
aF-73.0
aF-158.0
aaa(lp5588
g11
a(lp5589
F-50.0
aF-120.0
aF-88.0
aF-252.0
aaa(lp5590
g11
a(lp5591
F23.0
aF18.0
aF48.0
aF76.0
aaa(lp5592
g11
a(lp5593
F37.0
aF85.0
aF52.0
aF111.0
aaa(lp5594
g11
a(lp5595
F126.0
aF218.0
aF184.0
aF218.0
aaa(lp5596
g11
a(lp5597
F17.0
aF0.0
aF30.5
aF-19.0
aaa(lp5598
g14
a(lp5599
F13.5
aF-39.0
aaa(lp5600
g11
a(lp5601
F0.0
aF-12.0
aF-39.0
aF-52.0
aaa(lp5602
g11
a(lp5603
F-47.0
aF-45.0
aF-93.0
aF-91.0
aaa(lp5604
g11
a(lp5605
F-81.0
aF-87.0
aF-146.0
aF-206.0
aaa(lp5606
g84
a(lp5607
F2.0
aF-14.0
aaa(lp5608
g11
a(lp5609
F96.0
aF108.0
aF185.0
aF170.0
aaa(lp5610
g11
a(lp5611
F77.0
aF54.0
aF119.0
aF54.0
aaa(lp5612
g11
a(lp5613
F19.0
aF0.0
aF35.5
aF-15.0
aaa(lp5614
g14
a(lp5615
F16.5
aF-32.0
aaa(lp5616
g11
a(lp5617
F0.0
aF-14.0
aF-10.0
aF-31.0
aaa(lp5618
g11
a(lp5619
F-11.0
aF-20.0
aF-27.0
aF-29.0
aaa(lp5620
g11
a(lp5621
F-19.0
aF-11.0
aF-69.0
aF-28.0
aaa(lp5622
g11
a(lp5623
F-65.0
aF-22.0
aF-74.0
aF-25.0
aaa(lp5624
g11
a(lp5625
F-66.0
aF-26.0
aF-151.0
aF-119.0
aaa(lp5626
g84
a(lp5627
F3.0
aF-16.0
aaa(lp5628
g84
a(lp5629
F104.0
aF46.0
aaa(lp5630
g11
a(lp5631
F77.0
aF32.0
aF149.0
aF32.0
aaa(lp5632
g11
a(lp5633
F94.0
aF0.0
aF94.0
aF-110.0
aaa(lp5634
g29
a(lp5635
aa(lp5636
g8
a(lp5637
F650.0
aF-105.0
aaa(lp5638
g11
a(lp5639
F0.0
aF-46.0
aF-48.0
aF-46.0
aaa(lp5640
g11
a(lp5641
F-85.0
aF0.0
aF-105.0
aF9.0
aaa(lp5642
g11
a(lp5643
F-25.0
aF11.0
aF-25.0
aF60.0
aaa(lp5644
g11
a(lp5645
F0.0
aF78.0
aF20.0
aF106.0
aaa(lp5646
g14
a(lp5647
F83.0
aF28.0
aaa(lp5648
g11
a(lp5649
F25.0
aF0.0
aF49.0
aF-22.5
aaa(lp5650
g14
a(lp5651
F24.0
aF-50.5
aaa(lp5652
g11
a(lp5653
F0.0
aF-7.0
aF-2.0
aF-18.0
aaa(lp5654
g14
a(lp5655
F-2.0
aF-14.0
aaa(lp5656
g11
a(lp5657
F0.0
aF-7.0
aF3.0
aF-24.5
aaa(lp5658
g14
a(lp5659
F3.0
aF-27.5
aaa(lp5660
g29
a(lp5661
aasba(i__main__
Fonts
p5662
(dp5663
g3
S'i_Krungthep.svg'
p5664
sg5
(lp5665
(lp5666
g8
a(lp5667
F214.0
aF1706.0
aaa(lp5668
g34
a(lp5669
F214.0
aaa(lp5670
g43
a(lp5671
F426.0
aaa(lp5672
g34
a(lp5673
F-214.0
aaa(lp5674
g43
a(lp5675
F-426.0
aaa(lp5676
g29
a(lp5677
aa(lp5678
g8
a(lp5679
F214.0
aF0.0
aaa(lp5680
g34
a(lp5681
F1494.0
aaa(lp5682
g43
a(lp5683
F426.0
aaa(lp5684
g34
a(lp5685
F-1494.0
aaa(lp5686
g43
a(lp5687
F-426.0
aaa(lp5688
g29
a(lp5689
aasba(i__main__
Fonts
p5690
(dp5691
g3
S'i_MyanmarMN.svg'
p5692
sg5
(lp5693
(lp5694
g8
a(lp5695
F239.0
aF1624.0
aaa(lp5696
g11
a(lp5697
F25.0
aF0.0
aF47.5
aF-8.5
aaa(lp5698
g14
a(lp5699
F39.0
aF-23.0
aaa(lp5700
g14
a(lp5701
F26.5
aF-34.0
aaa(lp5702
g14
a(lp5703
F10.0
aF-41.5
aaa(lp5704
g14
a(lp5705
F-10.0
aF-41.5
aaa(lp5706
g14
a(lp5707
F-26.5
aF-34.0
aaa(lp5708
g14
a(lp5709
F-39.0
aF-23.0
aaa(lp5710
g14
a(lp5711
F-47.5
aF-8.5
aaa(lp5712
g14
a(lp5713
F-47.0
aF8.5
aaa(lp5714
g14
a(lp5715
F-38.5
aF23.0
aaa(lp5716
g14
a(lp5717
F-26.5
aF34.0
aaa(lp5718
g14
a(lp5719
F-10.0
aF41.5
aaa(lp5720
g14
a(lp5721
F10.0
aF41.5
aaa(lp5722
g14
a(lp5723
F26.5
aF34.0
aaa(lp5724
g14
a(lp5725
F38.5
aF23.0
aaa(lp5726
g14
a(lp5727
F47.0
aF8.5
aaa(lp5728
g29
a(lp5729
aa(lp5730
g8
a(lp5731
F135.0
aF1035.0
aaa(lp5732
g84
a(lp5733
F150.0
aF61.0
aaa(lp5734
g43
a(lp5735
F62.0
aaa(lp5736
g34
a(lp5737
F-1096.0
aaa(lp5738
g43
a(lp5739
F-212.0
aaa(lp5740
g34
a(lp5741
F1035.0
aaa(lp5742
g29
a(lp5743
aasba(i__main__
Fonts
p5744
(dp5745
g3
S'i_Verdana-Bold.svg'
p5746
sg5
(lp5747
(lp5748
g8
a(lp5749
F530.0
aF0.0
aaa(lp5750
g43
a(lp5751
F-360.0
aaa(lp5752
g34
a(lp5753
F1123.0
aaa(lp5754
g43
a(lp5755
F360.0
aaa(lp5756
g34
a(lp5757
F-1123.0
aaa(lp5758
g29
a(lp5759
aa(lp5760
g8
a(lp5761
F540.0
aF1283.0
aaa(lp5762
g43
a(lp5763
F-380.0
aaa(lp5764
g34
a(lp5765
F273.0
aaa(lp5766
g43
a(lp5767
F380.0
aaa(lp5768
g34
a(lp5769
F-273.0
aaa(lp5770
g29
a(lp5771
aasba(i__main__
Fonts
p5772
(dp5773
g3
S'i_TeluguMN.svg'
p5774
sg5
(lp5775
(lp5776
g8
a(lp5777
F196.0
aF985.0
aaa(lp5778
g84
a(lp5779
F143.0
aF58.0
aaa(lp5780
g43
a(lp5781
F59.0
aaa(lp5782
g34
a(lp5783
F-1043.0
aaa(lp5784
g43
a(lp5785
F-202.0
aaa(lp5786
g34
a(lp5787
F985.0
aaa(lp5788
g29
a(lp5789
aa(lp5790
g8
a(lp5791
F180.0
aF1416.0
aaa(lp5792
g11
a(lp5793
F0.0
aF24.0
aF9.0
aF45.0
aaa(lp5794
g14
a(lp5795
F25.0
aF37.0
aaa(lp5796
g14
a(lp5797
F37.0
aF25.0
aaa(lp5798
g14
a(lp5799
F45.0
aF9.0
aaa(lp5800
g14
a(lp5801
F45.0
aF-9.0
aaa(lp5802
g14
a(lp5803
F37.0
aF-25.0
aaa(lp5804
g14
a(lp5805
F25.0
aF-37.0
aaa(lp5806
g14
a(lp5807
F9.0
aF-45.0
aaa(lp5808
g14
a(lp5809
F-9.0
aF-45.0
aaa(lp5810
g14
a(lp5811
F-25.0
aF-37.0
aaa(lp5812
g14
a(lp5813
F-37.0
aF-25.0
aaa(lp5814
g14
a(lp5815
F-45.0
aF-9.0
aaa(lp5816
g14
a(lp5817
F-45.0
aF9.0
aaa(lp5818
g14
a(lp5819
F-37.0
aF25.0
aaa(lp5820
g14
a(lp5821
F-25.0
aF37.0
aaa(lp5822
g14
a(lp5823
F-9.0
aF45.0
aaa(lp5824
g29
a(lp5825
aasba(i__main__
Fonts
p5826
(dp5827
g3
S'i_Verdana-BoldItalic.svg'
p5828
sg5
(lp5829
(lp5830
g8
a(lp5831
F662.0
aF1123.0
aaa(lp5832
g84
a(lp5833
F-260.0
aF-1123.0
aaa(lp5834
g43
a(lp5835
F-362.0
aaa(lp5836
g84
a(lp5837
F260.0
aF1123.0
aaa(lp5838
g43
a(lp5839
F362.0
aaa(lp5840
g29
a(lp5841
aa(lp5842
g8
a(lp5843
F772.0
aF1556.0
aaa(lp5844
g84
a(lp5845
F-63.0
aF-273.0
aaa(lp5846
g43
a(lp5847
F-382.0
aaa(lp5848
g84
a(lp5849
F63.0
aF273.0
aaa(lp5850
g43
a(lp5851
F382.0
aaa(lp5852
g29
a(lp5853
aasba(i__main__
Fonts
p5854
(dp5855
g3
S'i_AmericanTypewriter.svg'
p5856
sg5
(lp5857
(lp5858
g8
a(lp5859
F201.0
aF290.0
aaa(lp5860
g34
a(lp5861
F-130.0
aaa(lp5862
g11
a(lp5863
F0.0
aF-50.0
aF1.0
aF-59.0
aaa(lp5864
g11
a(lp5865
F5.0
aF-45.0
aF27.0
aF-45.0
aaa(lp5866
g11
a(lp5867
F5.0
aF0.0
aF25.0
aF5.0
aaa(lp5868
g11
a(lp5869
F5.0
aF2.0
aF15.0
aF2.0
aaa(lp5870
g11
a(lp5871
F38.0
aF0.0
aF38.0
aF-33.0
aaa(lp5872
g11
a(lp5873
F0.0
aF-14.0
aF-12.5
aF-24.0
aaa(lp5874
g14
a(lp5875
F-31.5
aF-10.0
aaa(lp5876
g11
a(lp5877
F-16.0
aF0.0
aF-48.5
aF4.5
aaa(lp5878
g14
a(lp5879
F-48.5
aF4.5
aaa(lp5880
g11
a(lp5881
F-26.0
aF0.0
aF-58.0
aF-4.0
aaa(lp5882
g11
a(lp5883
F-39.0
aF-5.0
aF-52.0
aF-5.0
aaa(lp5884
g11
a(lp5885
F-40.0
aF0.0
aF-40.0
aF34.0
aaa(lp5886
g11
a(lp5887
F0.0
aF33.0
aF34.0
aF33.0
aaa(lp5888
g11
a(lp5889
F8.0
aF0.0
aF23.5
aF-3.0
aaa(lp5890
g14
a(lp5891
F23.5
aF-3.0
aaa(lp5892
g11
a(lp5893
F24.0
aF0.0
aF29.0
aF64.0
aaa(lp5894
g34
a(lp5895
F87.0
aaa(lp5896
g34
a(lp5897
F82.0
aaa(lp5898
g34
a(lp5899
F87.0
aaa(lp5900
g11
a(lp5901
F-5.0
aF63.0
aF-30.0
aF63.0
aaa(lp5902
g11
a(lp5903
F-8.0
aF0.0
aF-22.5
aF-3.5
aaa(lp5904
g14
a(lp5905
F-21.5
aF-3.5
aaa(lp5906
g11
a(lp5907
F-36.0
aF0.0
aF-36.0
aF32.0
aaa(lp5908
g11
a(lp5909
F0.0
aF34.0
aF44.0
aF34.0
aaa(lp5910
g11
a(lp5911
F19.0
aF0.0
aF27.0
aF-1.0
aaa(lp5912
g11
a(lp5913
F32.0
aF-4.0
aF41.0
aF-4.0
aaa(lp5914
g11
a(lp5915
F8.0
aF0.0
aF24.5
aF2.5
aaa(lp5916
g14
a(lp5917
F24.5
aF2.5
aaa(lp5918
g11
a(lp5919
F29.0
aF0.0
aF29.0
aF-39.0
aaa(lp5920
g11
a(lp5921
F0.0
aF-4.0
aF-1.0
aF-12.0
aaa(lp5922
g14
a(lp5923
F-1.0
aF-12.0
aaa(lp5924
g11
a(lp5925
F-1.0
aF-8.0
aF-2.0
aF-62.0
aaa(lp5926
g11
a(lp5927
F-1.0
aF-41.0
aF-1.0
aF-84.0
aaa(lp5928
g29
a(lp5929
aa(lp5930
g8
a(lp5931
F149.0
aF552.0
aaa(lp5932
g11
a(lp5933
F-23.0
aF0.0
aF-39.5
aF16.5
aaa(lp5934
g14
a(lp5935
F-16.5
aF39.5
aaa(lp5936
g14
a(lp5937
F16.5
aF39.0
aaa(lp5938
g14
a(lp5939
F39.5
aF16.0
aaa(lp5940
g14
a(lp5941
F39.5
aF-16.0
aaa(lp5942
g14
a(lp5943
F16.5
aF-39.0
aaa(lp5944
g14
a(lp5945
F-16.5
aF-39.5
aaa(lp5946
g14
a(lp5947
F-39.5
aF-16.5
aaa(lp5948
g29
a(lp5949
aasba(i__main__
Fonts
p5950
(dp5951
g3
S'i_SinhalaMN.svg'
p5952
sg5
(lp5953
(lp5954
g8
a(lp5955
F167.0
aF1137.0
aaa(lp5956
g11
a(lp5957
F18.0
aF0.0
aF33.5
aF-6.0
aaa(lp5958
g14
a(lp5959
F27.0
aF-16.5
aaa(lp5960
g14
a(lp5961
F18.5
aF-24.0
aaa(lp5962
g14
a(lp5963
F7.0
aF-28.5
aaa(lp5964
g14
a(lp5965
F-7.0
aF-29.0
aaa(lp5966
g14
a(lp5967
F-18.5
aF-24.0
aaa(lp5968
g14
a(lp5969
F-27.0
aF-16.0
aaa(lp5970
g14
a(lp5971
F-33.5
aF-6.0
aaa(lp5972
g11
a(lp5973
F-35.0
aF0.0
aF-60.0
aF22.0
aaa(lp5974
g14
a(lp5975
F-25.0
aF53.0
aaa(lp5976
g11
a(lp5977
F0.0
aF15.0
aF7.0
aF28.5
aaa(lp5978
g14
a(lp5979
F18.5
aF24.0
aaa(lp5980
g14
a(lp5981
F27.0
aF16.5
aaa(lp5982
g14
a(lp5983
F32.5
aF6.0
aaa(lp5984
g29
a(lp5985
aa(lp5986
g8
a(lp5987
F94.0
aF724.0
aaa(lp5988
g84
a(lp5989
F105.0
aF43.0
aaa(lp5990
g43
a(lp5991
F44.0
aaa(lp5992
g34
a(lp5993
F-767.0
aaa(lp5994
g43
a(lp5995
F-149.0
aaa(lp5996
g34
a(lp5997
F724.0
aaa(lp5998
g29
a(lp5999
aasba(i__main__
Fonts
p6000
(dp6001
g3
S'i_Chalkboard.svg'
p6002
sg5
(lp6003
(lp6004
g8
a(lp6005
F150.0
aF32.0
aaa(lp6006
g11
a(lp6007
F-1.0
aF-23.0
aF-13.5
aF-34.5
aaa(lp6008
g14
a(lp6009
F-27.5
aF-11.5
aaa(lp6010
g11
a(lp6011
F-14.0
aF0.0
aF-26.0
aF10.5
aaa(lp6012
g14
a(lp6013
F-15.0
aF32.5
aaa(lp6014
g11
a(lp6015
F-1.0
aF94.0
aF-1.5
aF192.0
aaa(lp6016
g14
a(lp6017
F-1.5
aF192.0
aaa(lp6018
g11
a(lp6019
F5.0
aF20.0
aF16.0
aF30.0
aaa(lp6020
g14
a(lp6021
F25.0
aF10.0
aaa(lp6022
g11
a(lp6023
F13.0
aF0.0
aF24.5
aF-9.0
aaa(lp6024
g14
a(lp6025
F16.5
aF-28.0
aaa(lp6026
g11
a(lp6027
F1.0
aF-94.0
aF1.5
aF-192.0
aaa(lp6028
g14
a(lp6029
F1.5
aF-192.0
aaa(lp6030
g29
a(lp6031
aa(lp6032
g8
a(lp6033
F58.0
aF576.0
aaa(lp6034
g11
a(lp6035
F0.0
aF22.0
aF14.0
aF37.5
aaa(lp6036
g14
a(lp6037
F34.0
aF15.5
aaa(lp6038
g14
a(lp6039
F34.5
aF-15.5
aaa(lp6040
g14
a(lp6041
F14.5
aF-37.5
aaa(lp6042
g11
a(lp6043
F0.0
aF-21.0
aF-14.5
aF-36.5
aaa(lp6044
g14
a(lp6045
F-34.5
aF-15.5
aaa(lp6046
g14
a(lp6047
F-34.0
aF15.5
aaa(lp6048
g14
a(lp6049
F-14.0
aF36.5
aaa(lp6050
g29
a(lp6051
aasba(i__main__
Fonts
p6052
(dp6053
g3
S'i_Cochin.svg'
p6054
sg5
(lp6055
(lp6056
g8
a(lp6057
F81.0
aF249.0
aaa(lp6058
g11
a(lp6059
F0.0
aF24.0
aF-1.5
aF42.5
aaa(lp6060
g14
a(lp6061
F-9.0
aF31.0
aaa(lp6062
g14
a(lp6063
F-22.5
aF20.5
aaa(lp6064
g14
a(lp6065
F-41.0
aF11.0
aaa(lp6066
g34
a(lp6067
F14.0
aaa(lp6068
g84
a(lp6069
F152.0
aF10.0
aaa(lp6070
g34
a(lp6071
F-294.0
aaa(lp6072
g11
a(lp6073
F0.0
aF-25.0
aF4.0
aF-39.5
aaa(lp6074
g14
a(lp6075
F13.5
aF-22.0
aaa(lp6076
g14
a(lp6077
F24.5
aF-10.5
aaa(lp6078
g14
a(lp6079
F37.0
aF-4.0
aaa(lp6080
g34
a(lp6081
F-12.0
aaa(lp6082
g11
a(lp6083
F-35.0
aF2.0
aF-70.5
aF3.0
aaa(lp6084
g14
a(lp6085
F-70.5
aF1.0
aaa(lp6086
g11
a(lp6087
F-23.0
aF0.0
aF-45.0
aF-1.0
aaa(lp6088
g14
a(lp6089
F-45.0
aF-3.0
aaa(lp6090
g34
a(lp6091
F12.0
aaa(lp6092
g11
a(lp6093
F20.0
aF1.0
aF34.0
aF4.0
aaa(lp6094
g14
a(lp6095
F23.0
aF10.5
aaa(lp6096
g14
a(lp6097
F13.0
aF22.0
aaa(lp6098
g14
a(lp6099
F4.0
aF39.5
aaa(lp6100
g34
a(lp6101
F165.0
aaa(lp6102
g29
a(lp6103
aa(lp6104
g8
a(lp6105
F110.0
aF672.0
aaa(lp6106
g11
a(lp6107
F22.0
aF0.0
aF37.5
aF-16.5
aaa(lp6108
g14
a(lp6109
F15.5
aF-38.5
aaa(lp6110
g14
a(lp6111
F-15.5
aF-38.5
aaa(lp6112
g14
a(lp6113
F-37.5
aF-16.5
aaa(lp6114
g14
a(lp6115
F-37.5
aF16.5
aaa(lp6116
g14
a(lp6117
F-15.5
aF38.5
aaa(lp6118
g14
a(lp6119
F15.5
aF38.5
aaa(lp6120
g14
a(lp6121
F37.5
aF16.5
aaa(lp6122
g29
a(lp6123
aasba(i__main__
Fonts
p6124
(dp6125
g3
S'b2down_Wingdings3.svg'
p6126
sg5
(lp6127
(lp6128
g8
a(lp6129
F616.0
aF0.0
aaa(lp6130
g84
a(lp6131
F-419.0
aF419.0
aaa(lp6132
g34
a(lp6133
F209.0
aaa(lp6134
g84
a(lp6135
F345.0
aF-345.0
aaa(lp6136
g34
a(lp6137
F1197.0
aaa(lp6138
g43
a(lp6139
F148.0
aaa(lp6140
g34
a(lp6141
F-1197.0
aaa(lp6142
g84
a(lp6143
F345.0
aF345.0
aaa(lp6144
g34
a(lp6145
F-209.0
aaa(lp6146
g29
a(lp6147
aasba(i__main__
Fonts
p6148
(dp6149
g3
S'i_BrushScriptMT.svg'
p6150
sg5
(lp6151
(lp6152
g8
a(lp6153
F426.0
aF762.0
aaa(lp6154
g11
a(lp6155
F-25.0
aF0.0
aF-47.5
aF19.0
aaa(lp6156
g14
a(lp6157
F-22.5
aF48.0
aaa(lp6158
g11
a(lp6159
F0.0
aF44.0
aF42.0
aF98.0
aaa(lp6160
g14
a(lp6161
F87.0
aF54.0
aaa(lp6162
g11
a(lp6163
F30.0
aF0.0
aF50.0
aF-18.5
aaa(lp6164
g14
a(lp6165
F20.0
aF-53.5
aaa(lp6166
g11
a(lp6167
F0.0
aF-43.0
aF-41.0
aF-95.0
aaa(lp6168
g14
a(lp6169
F-88.0
aF-52.0
aaa(lp6170
g29
a(lp6171
aa(lp6172
g8
a(lp6173
F494.0
aF315.0
aaa(lp6174
g34
a(lp6175
F-73.0
aaa(lp6176
g11
a(lp6177
F-97.0
aF-125.0
aF-181.0
aF-188.5
aaa(lp6178
g14
a(lp6179
F-143.0
aF-63.5
aaa(lp6180
g11
a(lp6181
F-82.0
aF0.0
aF-122.0
aF86.0
aaa(lp6182
g14
a(lp6183
F-40.0
aF188.0
aaa(lp6184
g11
a(lp6185
F0.0
aF39.0
aF8.0
aF74.5
aaa(lp6186
g14
a(lp6187
F19.0
aF58.5
aaa(lp6188
g14
a(lp6189
F41.0
aF72.0
aaa(lp6190
g11
a(lp6191
F142.0
aF221.0
aF260.0
aF221.0
aaa(lp6192
g11
a(lp6193
F61.0
aF0.0
aF61.0
aF-47.0
aaa(lp6194
g11
a(lp6195
F0.0
aF-32.0
aF-39.5
aF-100.0
aaa(lp6196
g14
a(lp6197
F-70.5
aF-97.0
aaa(lp6198
g11
a(lp6199
F-87.0
aF-84.0
aF-113.5
aF-117.0
aaa(lp6200
g14
a(lp6201
F-26.5
aF-75.0
aaa(lp6202
g11
a(lp6203
F0.0
aF-36.0
aF27.0
aF-60.0
aaa(lp6204
g14
a(lp6205
F70.0
aF-24.0
aaa(lp6206
g11
a(lp6207
F47.0
aF0.0
aF103.5
aF34.5
aaa(lp6208
g14
a(lp6209
F146.5
aF110.5
aaa(lp6210
g29
a(lp6211
aasba(i__main__
Fonts
p6212
(dp6213
g3
S'i_GujaratiSangamMN.svg'
p6214
sg5
(lp6215
(lp6216
g8
a(lp6217
F298.0
aF1402.0
aaa(lp6218
g34
a(lp6219
F-173.0
aaa(lp6220
g43
a(lp6221
F-148.0
aaa(lp6222
g34
a(lp6223
F173.0
aaa(lp6224
g43
a(lp6225
F148.0
aaa(lp6226
g29
a(lp6227
aa(lp6228
g8
a(lp6229
F298.0
aF1018.0
aaa(lp6230
g34
a(lp6231
F-1018.0
aaa(lp6232
g43
a(lp6233
F-148.0
aaa(lp6234
g34
a(lp6235
F1018.0
aaa(lp6236
g43
a(lp6237
F148.0
aaa(lp6238
g29
a(lp6239
aasba(i__main__
Fonts
p6240
(dp6241
g3
S'i_TrebuchetMS.svg'
p6242
sg5
(lp6243
(lp6244
g8
a(lp6245
F331.0
aF1476.0
aaa(lp6246
g11
a(lp6247
F49.0
aF0.0
aF83.5
aF-34.5
aaa(lp6248
g14
a(lp6249
F34.5
aF-82.5
aaa(lp6250
g11
a(lp6251
F0.0
aF-49.0
aF-34.5
aF-83.5
aaa(lp6252
g14
a(lp6253
F-83.5
aF-34.5
aaa(lp6254
g11
a(lp6255
F-48.0
aF0.0
aF-82.5
aF34.5
aaa(lp6256
g14
a(lp6257
F-34.5
aF83.5
aaa(lp6258
g14
a(lp6259
F34.0
aF83.0
aaa(lp6260
g14
a(lp6261
F83.0
aF34.0
aaa(lp6262
g29
a(lp6263
aa(lp6264
g8
a(lp6265
F227.0
aF0.0
aaa(lp6266
g34
a(lp6267
F911.0
aaa(lp6268
g43
a(lp6269
F-147.0
aaa(lp6270
g34
a(lp6271
F160.0
aaa(lp6272
g43
a(lp6273
F337.0
aaa(lp6274
g34
a(lp6275
F-1071.0
aaa(lp6276
g43
a(lp6277
F-190.0
aaa(lp6278
g29
a(lp6279
aasba(i__main__
Fonts
p6280
(dp6281
g3
S'i_LaoSangamMN.svg'
p6282
sg5
(lp6283
(lp6284
g8
a(lp6285
F153.0
aF696.0
aaa(lp6286
g34
a(lp6287
F-86.0
aaa(lp6288
g43
a(lp6289
F-73.0
aaa(lp6290
g34
a(lp6291
F86.0
aaa(lp6292
g43
a(lp6293
F73.0
aaa(lp6294
g29
a(lp6295
aa(lp6296
g8
a(lp6297
F153.0
aF497.0
aaa(lp6298
g34
a(lp6299
F-497.0
aaa(lp6300
g43
a(lp6301
F-73.0
aaa(lp6302
g34
a(lp6303
F497.0
aaa(lp6304
g43
a(lp6305
F73.0
aaa(lp6306
g29
a(lp6307
aasba(i__main__
Fonts
p6308
(dp6309
g3
S'i_Sathu.svg'
p6310
sg5
(lp6311
(lp6312
g8
a(lp6313
F91.0
aF695.0
aaa(lp6314
g43
a(lp6315
F116.0
aaa(lp6316
g34
a(lp6317
F-695.0
aaa(lp6318
g43
a(lp6319
F-116.0
aaa(lp6320
g34
a(lp6321
F695.0
aaa(lp6322
g29
a(lp6323
aa(lp6324
g8
a(lp6325
F91.0
aF849.0
aaa(lp6326
g34
a(lp6327
F116.0
aaa(lp6328
g43
a(lp6329
F116.0
aaa(lp6330
g34
a(lp6331
F-116.0
aaa(lp6332
g43
a(lp6333
F-116.0
aaa(lp6334
g29
a(lp6335
aasba(i__main__
Fonts
p6336
(dp6337
g3
S'i_Arial-Black.svg'
p6338
sg5
(lp6339
(lp6340
g8
a(lp6341
F138.0
aF1466.0
aaa(lp6342
g43
a(lp6343
F407.0
aaa(lp6344
g34
a(lp6345
F-277.0
aaa(lp6346
g43
a(lp6347
F-407.0
aaa(lp6348
g34
a(lp6349
F277.0
aaa(lp6350
g29
a(lp6351
aa(lp6352
g8
a(lp6353
F138.0
aF1062.0
aaa(lp6354
g43
a(lp6355
F407.0
aaa(lp6356
g34
a(lp6357
F-1062.0
aaa(lp6358
g43
a(lp6359
F-407.0
aaa(lp6360
g34
a(lp6361
F1062.0
aaa(lp6362
g29
a(lp6363
aasba(i__main__
Fonts
p6364
(dp6365
g3
S'i_ArialNarrow-Italic.svg'
p6366
sg5
(lp6367
(lp6368
g8
a(lp6369
F266.0
aF1261.0
aaa(lp6370
g84
a(lp6371
F35.0
aF205.0
aaa(lp6372
g43
a(lp6373
F148.0
aaa(lp6374
g84
a(lp6375
F-35.0
aF-205.0
aaa(lp6376
g43
a(lp6377
F-148.0
aaa(lp6378
g29
a(lp6379
aa(lp6380
g8
a(lp6381
F50.0
aF0.0
aaa(lp6382
g84
a(lp6383
F182.0
aF1062.0
aaa(lp6384
g43
a(lp6385
F148.0
aaa(lp6386
g84
a(lp6387
F-182.0
aF-1062.0
aaa(lp6388
g43
a(lp6389
F-148.0
aaa(lp6390
g29
a(lp6391
aasba(i__main__
Fonts
p6392
(dp6393
g3
S'i_TrebuchetMS-Bold.svg'
p6394
sg5
(lp6395
(lp6396
g8
a(lp6397
F331.0
aF1486.0
aaa(lp6398
g11
a(lp6399
F60.0
aF0.0
aF102.5
aF-42.5
aaa(lp6400
g14
a(lp6401
F42.5
aF-102.5
aaa(lp6402
g14
a(lp6403
F-42.5
aF-102.5
aaa(lp6404
g14
a(lp6405
F-102.5
aF-42.5
aaa(lp6406
g14
a(lp6407
F-102.5
aF42.5
aaa(lp6408
g14
a(lp6409
F-42.5
aF102.5
aaa(lp6410
g14
a(lp6411
F42.5
aF102.5
aaa(lp6412
g14
a(lp6413
F102.5
aF42.5
aaa(lp6414
g29
a(lp6415
aa(lp6416
g8
a(lp6417
F202.0
aF0.0
aaa(lp6418
g34
a(lp6419
F866.0
aaa(lp6420
g43
a(lp6421
F-137.0
aaa(lp6422
g34
a(lp6423
F205.0
aaa(lp6424
g43
a(lp6425
F390.0
aaa(lp6426
g34
a(lp6427
F-1071.0
aaa(lp6428
g43
a(lp6429
F-253.0
aaa(lp6430
g29
a(lp6431
aasba(i__main__
Fonts
p6432
(dp6433
g3
S'i_GillSans.svg'
p6434
sg5
(lp6435
(lp6436
g8
a(lp6437
F223.0
aF1307.0
aaa(lp6438
g11
a(lp6439
F45.0
aF0.0
aF77.0
aF-31.0
aaa(lp6440
g14
a(lp6441
F32.0
aF-76.0
aaa(lp6442
g11
a(lp6443
F0.0
aF-44.0
aF-32.0
aF-76.0
aaa(lp6444
g14
a(lp6445
F-77.0
aF-32.0
aaa(lp6446
g11
a(lp6447
F-42.0
aF0.0
aF-74.0
aF32.5
aaa(lp6448
g14
a(lp6449
F-32.0
aF75.5
aaa(lp6450
g11
a(lp6451
F0.0
aF42.0
aF32.0
aF74.5
aaa(lp6452
g14
a(lp6453
F74.0
aF32.5
aaa(lp6454
g29
a(lp6455
aa(lp6456
g8
a(lp6457
F133.0
aF920.0
aaa(lp6458
g43
a(lp6459
F182.0
aaa(lp6460
g34
a(lp6461
F-920.0
aaa(lp6462
g43
a(lp6463
F-182.0
aaa(lp6464
g34
a(lp6465
F920.0
aaa(lp6466
g29
a(lp6467
aasba(i__main__
Fonts
p6468
(dp6469
g3
S'i_TimesNewRomanPSMT.svg'
p6470
sg5
(lp6471
(lp6472
g8
a(lp6473
F297.0
aF1422.0
aaa(lp6474
g11
a(lp6475
F42.0
aF0.0
aF71.5
aF-29.5
aaa(lp6476
g14
a(lp6477
F29.5
aF-71.5
aaa(lp6478
g14
a(lp6479
F-29.5
aF-72.0
aaa(lp6480
g14
a(lp6481
F-71.5
aF-30.0
aaa(lp6482
g14
a(lp6483
F-72.0
aF30.0
aaa(lp6484
g14
a(lp6485
F-30.0
aF72.0
aaa(lp6486
g14
a(lp6487
F29.5
aF71.5
aaa(lp6488
g14
a(lp6489
F72.5
aF29.5
aaa(lp6490
g29
a(lp6491
aa(lp6492
g8
a(lp6493
F380.0
aF943.0
aaa(lp6494
g34
a(lp6495
F-736.0
aaa(lp6496
g11
a(lp6497
F0.0
aF-86.0
aF12.5
aF-114.5
aaa(lp6498
g14
a(lp6499
F37.0
aF-42.5
aaa(lp6500
g14
a(lp6501
F89.5
aF-14.0
aaa(lp6502
g34
a(lp6503
F-36.0
aaa(lp6504
g43
a(lp6505
F-445.0
aaa(lp6506
g34
a(lp6507
F36.0
aaa(lp6508
g11
a(lp6509
F67.0
aF0.0
aF90.0
aF13.0
aaa(lp6510
g14
a(lp6511
F36.5
aF43.0
aaa(lp6512
g14
a(lp6513
F13.5
aF115.0
aaa(lp6514
g34
a(lp6515
F353.0
aaa(lp6516
g11
a(lp6517
F0.0
aF149.0
aF-9.0
aF193.0
aaa(lp6518
g11
a(lp6519
F-7.0
aF32.0
aF-22.0
aF44.5
aaa(lp6520
g14
a(lp6521
F-41.0
aF12.5
aaa(lp6522
g11
a(lp6523
F-28.0
aF0.0
aF-68.0
aF-15.0
aaa(lp6524
g84
a(lp6525
F-14.0
aF36.0
aaa(lp6526
g84
a(lp6527
F276.0
aF112.0
aaa(lp6528
g43
a(lp6529
F44.0
aaa(lp6530
g29
a(lp6531
aasba(i__main__
Fonts
p6532
(dp6533
g3
S'i_Papyrus-Condensed.svg'
p6534
sg5
(lp6535
(lp6536
g8
a(lp6537
F257.0
aF1409.0
aaa(lp6538
g11
a(lp6539
F0.0
aF-22.0
aF-7.0
aF-29.0
aaa(lp6540
g84
a(lp6541
F-51.0
aF-53.0
aaa(lp6542
g84
a(lp6543
F-20.0
aF-29.0
aaa(lp6544
g84
a(lp6545
F-36.0
aF-36.0
aaa(lp6546
g11
a(lp6547
F-37.0
aF-39.0
aF-44.0
aF-39.0
aaa(lp6548
g11
a(lp6549
F-4.0
aF0.0
aF-7.5
aF6.5
aaa(lp6550
g14
a(lp6551
F-3.5
aF13.5
aaa(lp6552
g11
a(lp6553
F0.0
aF23.0
aF8.0
aF35.0
aaa(lp6554
g84
a(lp6555
F71.0
aF98.0
aaa(lp6556
g84
a(lp6557
F38.0
aF74.0
aaa(lp6558
g11
a(lp6559
F8.0
aF6.0
aF19.0
aF6.0
aaa(lp6560
g11
a(lp6561
F13.0
aF0.0
aF23.0
aF-13.5
aaa(lp6562
g14
a(lp6563
F10.0
aF-33.5
aaa(lp6564
g29
a(lp6565
aa(lp6566
g8
a(lp6567
F216.0
aF879.0
aaa(lp6568
g11
a(lp6569
F-13.0
aF-42.0
aF-15.0
aF-78.0
aaa(lp6570
g84
a(lp6571
F-4.0
aF-99.0
aaa(lp6572
g84
a(lp6573
F-13.0
aF-34.0
aaa(lp6574
g11
a(lp6575
F0.0
aF-2.0
aF-0.5
aF-4.0
aaa(lp6576
g14
a(lp6577
F-1.5
aF-5.0
aaa(lp6578
g11
a(lp6579
F0.0
aF-13.0
aF17.0
aF-28.0
aaa(lp6580
g84
a(lp6581
F-2.0
aF-31.0
aaa(lp6582
g34
a(lp6583
F-194.0
aaa(lp6584
g84
a(lp6585
F-3.0
aF-156.0
aaa(lp6586
g84
a(lp6587
F10.0
aF-66.0
aaa(lp6588
g34
a(lp6589
F-34.0
aaa(lp6590
g84
a(lp6591
F2.0
aF-68.0
aaa(lp6592
g11
a(lp6593
F-3.0
aF-15.0
aF-43.0
aF-59.0
aaa(lp6594
g84
a(lp6595
F-35.0
aF-39.0
aaa(lp6596
g11
a(lp6597
F-8.0
aF-13.0
aF-20.0
aF-13.0
aaa(lp6598
g11
a(lp6599
F-9.0
aF0.0
aF-16.0
aF8.0
aaa(lp6600
g14
a(lp6601
F-7.0
aF17.0
aaa(lp6602
g11
a(lp6603
F0.0
aF26.0
aF11.0
aF61.0
aaa(lp6604
g84
a(lp6605
F5.0
aF29.0
aaa(lp6606
g84
a(lp6607
F-6.0
aF10.0
aaa(lp6608
g84
a(lp6609
F10.0
aF168.0
aaa(lp6610
g84
a(lp6611
F4.0
aF17.0
aaa(lp6612
g84
a(lp6613
F18.0
aF4.0
aaa(lp6614
g34
a(lp6615
F32.0
aaa(lp6616
g11
a(lp6617
F0.0
aF31.0
aF-3.5
aF46.0
aaa(lp6618
g14
a(lp6619
F-17.5
aF40.0
aaa(lp6620
g84
a(lp6621
F2.0
aF33.0
aaa(lp6622
g34
a(lp6623
F6.0
aaa(lp6624
g84
a(lp6625
F-2.0
aF17.0
aaa(lp6626
g11
a(lp6627
F0.0
aF33.0
aF9.0
aF59.0
aaa(lp6628
g84
a(lp6629
F-10.0
aF17.0
aaa(lp6630
g84
a(lp6631
F1.0
aF55.0
aaa(lp6632
g11
a(lp6633
F10.0
aF8.0
aF10.0
aF18.0
aaa(lp6634
g84
a(lp6635
F-1.0
aF17.0
aaa(lp6636
g84
a(lp6637
F-20.0
aF4.0
aaa(lp6638
g34
a(lp6639
F30.0
aaa(lp6640
g84
a(lp6641
F1.0
aF27.0
aaa(lp6642
g34
a(lp6643
F41.0
aaa(lp6644
g11
a(lp6645
F0.0
aF27.0
aF-4.0
aF40.0
aaa(lp6646
g14
a(lp6647
F-17.0
aF28.0
aaa(lp6648
g11
a(lp6649
F9.0
aF35.0
aF41.0
aF61.0
aaa(lp6650
g84
a(lp6651
F66.0
aF55.0
aaa(lp6652
g11
a(lp6653
F19.0
aF-3.0
aF34.0
aF-32.0
aaa(lp6654
g29
a(lp6655
aasba(i__main__
Fonts
p6656
(dp6657
g3
S'i_TrebuchetMS-Italic.svg'
p6658
sg5
(lp6659
(lp6660
g8
a(lp6661
F445.0
aF1491.0
aaa(lp6662
g11
a(lp6663
F55.0
aF0.0
aF94.0
aF-38.5
aaa(lp6664
g14
a(lp6665
F39.0
aF-94.5
aaa(lp6666
g11
a(lp6667
F0.0
aF-55.0
aF-39.0
aF-93.5
aaa(lp6668
g14
a(lp6669
F-94.0
aF-38.5
aaa(lp6670
g14
a(lp6671
F-94.0
aF38.5
aaa(lp6672
g14
a(lp6673
F-39.0
aF93.5
aaa(lp6674
g11
a(lp6675
F0.0
aF56.0
aF39.0
aF94.5
aaa(lp6676
g14
a(lp6677
F94.0
aF38.5
aaa(lp6678
g29
a(lp6679
aa(lp6680
g8
a(lp6681
F138.0
aF0.0
aaa(lp6682
g84
a(lp6683
F162.0
aF911.0
aaa(lp6684
g43
a(lp6685
F-142.0
aaa(lp6686
g84
a(lp6687
F35.0
aF157.0
aaa(lp6688
g43
a(lp6689
F327.0
aaa(lp6690
g84
a(lp6691
F-189.0
aF-1068.0
aaa(lp6692
g43
a(lp6693
F-193.0
aaa(lp6694
g29
a(lp6695
aasba(i__main__
Fonts
p6696
(dp6697
g3
S'i_SukhumvitSet-Thin.svg'
p6698
sg5
(lp6699
(lp6700
g8
a(lp6701
F131.0
aF0.0
aaa(lp6702
g43
a(lp6703
F-46.0
aaa(lp6704
g34
a(lp6705
F483.0
aaa(lp6706
g43
a(lp6707
F46.0
aaa(lp6708
g34
a(lp6709
F-483.0
aaa(lp6710
g29
a(lp6711
aa(lp6712
g8
a(lp6713
F108.0
aF682.0
aaa(lp6714
g11
a(lp6715
F19.0
aF0.0
aF29.5
aF-11.0
aaa(lp6716
g14
a(lp6717
F10.5
aF-27.0
aaa(lp6718
g14
a(lp6719
F-10.5
aF-27.0
aaa(lp6720
g14
a(lp6721
F-29.5
aF-11.0
aaa(lp6722
g14
a(lp6723
F-29.5
aF11.0
aaa(lp6724
g14
a(lp6725
F-10.5
aF27.0
aaa(lp6726
g14
a(lp6727
F10.5
aF27.0
aaa(lp6728
g14
a(lp6729
F29.5
aF11.0
aaa(lp6730
g29
a(lp6731
aasba(i__main__
Fonts
p6732
(dp6733
g3
S'i_DINAlternate-Bold.svg'
p6734
sg5
(lp6735
(lp6736
g8
a(lp6737
F141.0
aF0.0
aaa(lp6738
g43
a(lp6739
F209.0
aaa(lp6740
g34
a(lp6741
F1038.0
aaa(lp6742
g43
a(lp6743
F-209.0
aaa(lp6744
g34
a(lp6745
F-1038.0
aaa(lp6746
g29
a(lp6747
aa(lp6748
g8
a(lp6749
F141.0
aF1249.0
aaa(lp6750
g43
a(lp6751
F209.0
aaa(lp6752
g34
a(lp6753
F209.0
aaa(lp6754
g43
a(lp6755
F-209.0
aaa(lp6756
g34
a(lp6757
F-209.0
aaa(lp6758
g29
a(lp6759
aasba(i__main__
Fonts
p6760
(dp6761
g3
S'i_LaoMN.svg'
p6762
sg5
(lp6763
(lp6764
g8
a(lp6765
F239.0
aF1624.0
aaa(lp6766
g11
a(lp6767
F25.0
aF0.0
aF47.5
aF-8.5
aaa(lp6768
g14
a(lp6769
F39.0
aF-23.0
aaa(lp6770
g14
a(lp6771
F26.5
aF-34.0
aaa(lp6772
g14
a(lp6773
F10.0
aF-41.5
aaa(lp6774
g14
a(lp6775
F-10.0
aF-41.5
aaa(lp6776
g14
a(lp6777
F-26.5
aF-34.0
aaa(lp6778
g14
a(lp6779
F-39.0
aF-23.0
aaa(lp6780
g14
a(lp6781
F-47.5
aF-8.5
aaa(lp6782
g14
a(lp6783
F-47.0
aF8.5
aaa(lp6784
g14
a(lp6785
F-38.5
aF23.0
aaa(lp6786
g14
a(lp6787
F-26.5
aF34.0
aaa(lp6788
g14
a(lp6789
F-10.0
aF41.5
aaa(lp6790
g14
a(lp6791
F10.0
aF41.5
aaa(lp6792
g14
a(lp6793
F26.5
aF34.0
aaa(lp6794
g14
a(lp6795
F38.5
aF23.0
aaa(lp6796
g14
a(lp6797
F47.0
aF8.5
aaa(lp6798
g29
a(lp6799
aa(lp6800
g8
a(lp6801
F135.0
aF1035.0
aaa(lp6802
g84
a(lp6803
F150.0
aF61.0
aaa(lp6804
g43
a(lp6805
F62.0
aaa(lp6806
g34
a(lp6807
F-1096.0
aaa(lp6808
g43
a(lp6809
F-212.0
aaa(lp6810
g34
a(lp6811
F1035.0
aaa(lp6812
g29
a(lp6813
aasba.